
rtarget：     文件格式 elf64-x86-64


Disassembly of section .init:

0000000000401000 <_init>:
  401000:	48 83 ec 08          	sub    $0x8,%rsp
  401004:	48 8b 05 d5 5f 00 00 	mov    0x5fd5(%rip),%rax        # 406fe0 <__gmon_start__@Base>
  40100b:	48 85 c0             	test   %rax,%rax
  40100e:	74 02                	je     401012 <_init+0x12>
  401010:	ff d0                	call   *%rax
  401012:	48 83 c4 08          	add    $0x8,%rsp
  401016:	c3                   	ret    

Disassembly of section .plt:

0000000000401020 <strcasecmp@plt-0x10>:
  401020:	ff 35 ca 5f 00 00    	push   0x5fca(%rip)        # 406ff0 <_GLOBAL_OFFSET_TABLE_+0x8>
  401026:	ff 25 cc 5f 00 00    	jmp    *0x5fcc(%rip)        # 406ff8 <_GLOBAL_OFFSET_TABLE_+0x10>
  40102c:	0f 1f 40 00          	nopl   0x0(%rax)

0000000000401030 <strcasecmp@plt>:
  401030:	ff 25 ca 5f 00 00    	jmp    *0x5fca(%rip)        # 407000 <strcasecmp@GLIBC_2.2.5>
  401036:	68 00 00 00 00       	push   $0x0
  40103b:	e9 e0 ff ff ff       	jmp    401020 <_init+0x20>

0000000000401040 <__errno_location@plt>:
  401040:	ff 25 c2 5f 00 00    	jmp    *0x5fc2(%rip)        # 407008 <__errno_location@GLIBC_2.2.5>
  401046:	68 01 00 00 00       	push   $0x1
  40104b:	e9 d0 ff ff ff       	jmp    401020 <_init+0x20>

0000000000401050 <srandom@plt>:
  401050:	ff 25 ba 5f 00 00    	jmp    *0x5fba(%rip)        # 407010 <srandom@GLIBC_2.2.5>
  401056:	68 02 00 00 00       	push   $0x2
  40105b:	e9 c0 ff ff ff       	jmp    401020 <_init+0x20>

0000000000401060 <strncmp@plt>:
  401060:	ff 25 b2 5f 00 00    	jmp    *0x5fb2(%rip)        # 407018 <strncmp@GLIBC_2.2.5>
  401066:	68 03 00 00 00       	push   $0x3
  40106b:	e9 b0 ff ff ff       	jmp    401020 <_init+0x20>

0000000000401070 <strcpy@plt>:
  401070:	ff 25 aa 5f 00 00    	jmp    *0x5faa(%rip)        # 407020 <strcpy@GLIBC_2.2.5>
  401076:	68 04 00 00 00       	push   $0x4
  40107b:	e9 a0 ff ff ff       	jmp    401020 <_init+0x20>

0000000000401080 <puts@plt>:
  401080:	ff 25 a2 5f 00 00    	jmp    *0x5fa2(%rip)        # 407028 <puts@GLIBC_2.2.5>
  401086:	68 05 00 00 00       	push   $0x5
  40108b:	e9 90 ff ff ff       	jmp    401020 <_init+0x20>

0000000000401090 <write@plt>:
  401090:	ff 25 9a 5f 00 00    	jmp    *0x5f9a(%rip)        # 407030 <write@GLIBC_2.2.5>
  401096:	68 06 00 00 00       	push   $0x6
  40109b:	e9 80 ff ff ff       	jmp    401020 <_init+0x20>

00000000004010a0 <strlen@plt>:
  4010a0:	ff 25 92 5f 00 00    	jmp    *0x5f92(%rip)        # 407038 <strlen@GLIBC_2.2.5>
  4010a6:	68 07 00 00 00       	push   $0x7
  4010ab:	e9 70 ff ff ff       	jmp    401020 <_init+0x20>

00000000004010b0 <mmap@plt>:
  4010b0:	ff 25 8a 5f 00 00    	jmp    *0x5f8a(%rip)        # 407040 <mmap@GLIBC_2.2.5>
  4010b6:	68 08 00 00 00       	push   $0x8
  4010bb:	e9 60 ff ff ff       	jmp    401020 <_init+0x20>

00000000004010c0 <printf@plt>:
  4010c0:	ff 25 82 5f 00 00    	jmp    *0x5f82(%rip)        # 407048 <printf@GLIBC_2.2.5>
  4010c6:	68 09 00 00 00       	push   $0x9
  4010cb:	e9 50 ff ff ff       	jmp    401020 <_init+0x20>

00000000004010d0 <memset@plt>:
  4010d0:	ff 25 7a 5f 00 00    	jmp    *0x5f7a(%rip)        # 407050 <memset@GLIBC_2.2.5>
  4010d6:	68 0a 00 00 00       	push   $0xa
  4010db:	e9 40 ff ff ff       	jmp    401020 <_init+0x20>

00000000004010e0 <alarm@plt>:
  4010e0:	ff 25 72 5f 00 00    	jmp    *0x5f72(%rip)        # 407058 <alarm@GLIBC_2.2.5>
  4010e6:	68 0b 00 00 00       	push   $0xb
  4010eb:	e9 30 ff ff ff       	jmp    401020 <_init+0x20>

00000000004010f0 <close@plt>:
  4010f0:	ff 25 6a 5f 00 00    	jmp    *0x5f6a(%rip)        # 407060 <close@GLIBC_2.2.5>
  4010f6:	68 0c 00 00 00       	push   $0xc
  4010fb:	e9 20 ff ff ff       	jmp    401020 <_init+0x20>

0000000000401100 <read@plt>:
  401100:	ff 25 62 5f 00 00    	jmp    *0x5f62(%rip)        # 407068 <read@GLIBC_2.2.5>
  401106:	68 0d 00 00 00       	push   $0xd
  40110b:	e9 10 ff ff ff       	jmp    401020 <_init+0x20>

0000000000401110 <signal@plt>:
  401110:	ff 25 5a 5f 00 00    	jmp    *0x5f5a(%rip)        # 407070 <signal@GLIBC_2.2.5>
  401116:	68 0e 00 00 00       	push   $0xe
  40111b:	e9 00 ff ff ff       	jmp    401020 <_init+0x20>

0000000000401120 <gethostbyname@plt>:
  401120:	ff 25 52 5f 00 00    	jmp    *0x5f52(%rip)        # 407078 <gethostbyname@GLIBC_2.2.5>
  401126:	68 0f 00 00 00       	push   $0xf
  40112b:	e9 f0 fe ff ff       	jmp    401020 <_init+0x20>

0000000000401130 <fprintf@plt>:
  401130:	ff 25 4a 5f 00 00    	jmp    *0x5f4a(%rip)        # 407080 <fprintf@GLIBC_2.2.5>
  401136:	68 10 00 00 00       	push   $0x10
  40113b:	e9 e0 fe ff ff       	jmp    401020 <_init+0x20>

0000000000401140 <strtol@plt>:
  401140:	ff 25 42 5f 00 00    	jmp    *0x5f42(%rip)        # 407088 <strtol@GLIBC_2.2.5>
  401146:	68 11 00 00 00       	push   $0x11
  40114b:	e9 d0 fe ff ff       	jmp    401020 <_init+0x20>

0000000000401150 <memcpy@plt>:
  401150:	ff 25 3a 5f 00 00    	jmp    *0x5f3a(%rip)        # 407090 <memcpy@GLIBC_2.14>
  401156:	68 12 00 00 00       	push   $0x12
  40115b:	e9 c0 fe ff ff       	jmp    401020 <_init+0x20>

0000000000401160 <time@plt>:
  401160:	ff 25 32 5f 00 00    	jmp    *0x5f32(%rip)        # 407098 <time@GLIBC_2.2.5>
  401166:	68 13 00 00 00       	push   $0x13
  40116b:	e9 b0 fe ff ff       	jmp    401020 <_init+0x20>

0000000000401170 <random@plt>:
  401170:	ff 25 2a 5f 00 00    	jmp    *0x5f2a(%rip)        # 4070a0 <random@GLIBC_2.2.5>
  401176:	68 14 00 00 00       	push   $0x14
  40117b:	e9 a0 fe ff ff       	jmp    401020 <_init+0x20>

0000000000401180 <__isoc99_sscanf@plt>:
  401180:	ff 25 22 5f 00 00    	jmp    *0x5f22(%rip)        # 4070a8 <__isoc99_sscanf@GLIBC_2.7>
  401186:	68 15 00 00 00       	push   $0x15
  40118b:	e9 90 fe ff ff       	jmp    401020 <_init+0x20>

0000000000401190 <munmap@plt>:
  401190:	ff 25 1a 5f 00 00    	jmp    *0x5f1a(%rip)        # 4070b0 <munmap@GLIBC_2.2.5>
  401196:	68 16 00 00 00       	push   $0x16
  40119b:	e9 80 fe ff ff       	jmp    401020 <_init+0x20>

00000000004011a0 <memmove@plt>:
  4011a0:	ff 25 12 5f 00 00    	jmp    *0x5f12(%rip)        # 4070b8 <memmove@GLIBC_2.2.5>
  4011a6:	68 17 00 00 00       	push   $0x17
  4011ab:	e9 70 fe ff ff       	jmp    401020 <_init+0x20>

00000000004011b0 <fopen@plt>:
  4011b0:	ff 25 0a 5f 00 00    	jmp    *0x5f0a(%rip)        # 4070c0 <fopen@GLIBC_2.2.5>
  4011b6:	68 18 00 00 00       	push   $0x18
  4011bb:	e9 60 fe ff ff       	jmp    401020 <_init+0x20>

00000000004011c0 <getopt@plt>:
  4011c0:	ff 25 02 5f 00 00    	jmp    *0x5f02(%rip)        # 4070c8 <getopt@GLIBC_2.2.5>
  4011c6:	68 19 00 00 00       	push   $0x19
  4011cb:	e9 50 fe ff ff       	jmp    401020 <_init+0x20>

00000000004011d0 <strtoul@plt>:
  4011d0:	ff 25 fa 5e 00 00    	jmp    *0x5efa(%rip)        # 4070d0 <strtoul@GLIBC_2.2.5>
  4011d6:	68 1a 00 00 00       	push   $0x1a
  4011db:	e9 40 fe ff ff       	jmp    401020 <_init+0x20>

00000000004011e0 <gethostname@plt>:
  4011e0:	ff 25 f2 5e 00 00    	jmp    *0x5ef2(%rip)        # 4070d8 <gethostname@GLIBC_2.2.5>
  4011e6:	68 1b 00 00 00       	push   $0x1b
  4011eb:	e9 30 fe ff ff       	jmp    401020 <_init+0x20>

00000000004011f0 <sprintf@plt>:
  4011f0:	ff 25 ea 5e 00 00    	jmp    *0x5eea(%rip)        # 4070e0 <sprintf@GLIBC_2.2.5>
  4011f6:	68 1c 00 00 00       	push   $0x1c
  4011fb:	e9 20 fe ff ff       	jmp    401020 <_init+0x20>

0000000000401200 <exit@plt>:
  401200:	ff 25 e2 5e 00 00    	jmp    *0x5ee2(%rip)        # 4070e8 <exit@GLIBC_2.2.5>
  401206:	68 1d 00 00 00       	push   $0x1d
  40120b:	e9 10 fe ff ff       	jmp    401020 <_init+0x20>

0000000000401210 <connect@plt>:
  401210:	ff 25 da 5e 00 00    	jmp    *0x5eda(%rip)        # 4070f0 <connect@GLIBC_2.2.5>
  401216:	68 1e 00 00 00       	push   $0x1e
  40121b:	e9 00 fe ff ff       	jmp    401020 <_init+0x20>

0000000000401220 <getc@plt>:
  401220:	ff 25 d2 5e 00 00    	jmp    *0x5ed2(%rip)        # 4070f8 <getc@GLIBC_2.2.5>
  401226:	68 1f 00 00 00       	push   $0x1f
  40122b:	e9 f0 fd ff ff       	jmp    401020 <_init+0x20>

0000000000401230 <socket@plt>:
  401230:	ff 25 ca 5e 00 00    	jmp    *0x5eca(%rip)        # 407100 <socket@GLIBC_2.2.5>
  401236:	68 20 00 00 00       	push   $0x20
  40123b:	e9 e0 fd ff ff       	jmp    401020 <_init+0x20>

Disassembly of section .text:

0000000000401240 <_start>:
  401240:	31 ed                	xor    %ebp,%ebp
  401242:	49 89 d1             	mov    %rdx,%r9
  401245:	5e                   	pop    %rsi
  401246:	48 89 e2             	mov    %rsp,%rdx
  401249:	48 83 e4 f0          	and    $0xfffffffffffffff0,%rsp
  40124d:	50                   	push   %rax
  40124e:	54                   	push   %rsp
  40124f:	45 31 c0             	xor    %r8d,%r8d
  401252:	31 c9                	xor    %ecx,%ecx
  401254:	48 c7 c7 df 14 40 00 	mov    $0x4014df,%rdi
  40125b:	ff 15 77 5d 00 00    	call   *0x5d77(%rip)        # 406fd8 <__libc_start_main@GLIBC_2.34>
  401261:	f4                   	hlt    
  401262:	66 2e 0f 1f 84 00 00 	cs nopw 0x0(%rax,%rax,1)
  401269:	00 00 00 
  40126c:	0f 1f 40 00          	nopl   0x0(%rax)

0000000000401270 <_dl_relocate_static_pie>:
  401270:	c3                   	ret    
  401271:	66 2e 0f 1f 84 00 00 	cs nopw 0x0(%rax,%rax,1)
  401278:	00 00 00 
  40127b:	0f 1f 44 00 00       	nopl   0x0(%rax,%rax,1)

0000000000401280 <deregister_tm_clones>:
  401280:	b8 98 74 40 00       	mov    $0x407498,%eax
  401285:	48 3d 98 74 40 00    	cmp    $0x407498,%rax
  40128b:	74 13                	je     4012a0 <deregister_tm_clones+0x20>
  40128d:	b8 00 00 00 00       	mov    $0x0,%eax
  401292:	48 85 c0             	test   %rax,%rax
  401295:	74 09                	je     4012a0 <deregister_tm_clones+0x20>
  401297:	bf 98 74 40 00       	mov    $0x407498,%edi
  40129c:	ff e0                	jmp    *%rax
  40129e:	66 90                	xchg   %ax,%ax
  4012a0:	c3                   	ret    
  4012a1:	66 66 2e 0f 1f 84 00 	data16 cs nopw 0x0(%rax,%rax,1)
  4012a8:	00 00 00 00 
  4012ac:	0f 1f 40 00          	nopl   0x0(%rax)

00000000004012b0 <register_tm_clones>:
  4012b0:	be 98 74 40 00       	mov    $0x407498,%esi
  4012b5:	48 81 ee 98 74 40 00 	sub    $0x407498,%rsi
  4012bc:	48 89 f0             	mov    %rsi,%rax
  4012bf:	48 c1 ee 3f          	shr    $0x3f,%rsi
  4012c3:	48 c1 f8 03          	sar    $0x3,%rax
  4012c7:	48 01 c6             	add    %rax,%rsi
  4012ca:	48 d1 fe             	sar    %rsi
  4012cd:	74 11                	je     4012e0 <register_tm_clones+0x30>
  4012cf:	b8 00 00 00 00       	mov    $0x0,%eax
  4012d4:	48 85 c0             	test   %rax,%rax
  4012d7:	74 07                	je     4012e0 <register_tm_clones+0x30>
  4012d9:	bf 98 74 40 00       	mov    $0x407498,%edi
  4012de:	ff e0                	jmp    *%rax
  4012e0:	c3                   	ret    
  4012e1:	66 66 2e 0f 1f 84 00 	data16 cs nopw 0x0(%rax,%rax,1)
  4012e8:	00 00 00 00 
  4012ec:	0f 1f 40 00          	nopl   0x0(%rax)

00000000004012f0 <__do_global_dtors_aux>:
  4012f0:	80 3d f1 61 00 00 00 	cmpb   $0x0,0x61f1(%rip)        # 4074e8 <completed.0>
  4012f7:	75 17                	jne    401310 <__do_global_dtors_aux+0x20>
  4012f9:	55                   	push   %rbp
  4012fa:	48 89 e5             	mov    %rsp,%rbp
  4012fd:	e8 7e ff ff ff       	call   401280 <deregister_tm_clones>
  401302:	c6 05 df 61 00 00 01 	movb   $0x1,0x61df(%rip)        # 4074e8 <completed.0>
  401309:	5d                   	pop    %rbp
  40130a:	c3                   	ret    
  40130b:	0f 1f 44 00 00       	nopl   0x0(%rax,%rax,1)
  401310:	c3                   	ret    
  401311:	66 66 2e 0f 1f 84 00 	data16 cs nopw 0x0(%rax,%rax,1)
  401318:	00 00 00 00 
  40131c:	0f 1f 40 00          	nopl   0x0(%rax)

0000000000401320 <frame_dummy>:
  401320:	eb 8e                	jmp    4012b0 <register_tm_clones>

0000000000401322 <usage>:
  401322:	48 83 ec 08          	sub    $0x8,%rsp
  401326:	48 89 fe             	mov    %rdi,%rsi
  401329:	83 3d 00 62 00 00 00 	cmpl   $0x0,0x6200(%rip)        # 407530 <is_checker>
  401330:	74 4b                	je     40137d <usage+0x5b>
  401332:	48 8d 3d cf 2c 00 00 	lea    0x2ccf(%rip),%rdi        # 404008 <_IO_stdin_used+0x8>
  401339:	b8 00 00 00 00       	mov    $0x0,%eax
  40133e:	e8 7d fd ff ff       	call   4010c0 <printf@plt>
  401343:	48 8d 3d f6 2c 00 00 	lea    0x2cf6(%rip),%rdi        # 404040 <_IO_stdin_used+0x40>
  40134a:	e8 31 fd ff ff       	call   401080 <puts@plt>
  40134f:	48 8d 3d 22 2e 00 00 	lea    0x2e22(%rip),%rdi        # 404178 <_IO_stdin_used+0x178>
  401356:	e8 25 fd ff ff       	call   401080 <puts@plt>
  40135b:	48 8d 3d 06 2d 00 00 	lea    0x2d06(%rip),%rdi        # 404068 <_IO_stdin_used+0x68>
  401362:	e8 19 fd ff ff       	call   401080 <puts@plt>
  401367:	48 8d 3d 24 2e 00 00 	lea    0x2e24(%rip),%rdi        # 404192 <_IO_stdin_used+0x192>
  40136e:	e8 0d fd ff ff       	call   401080 <puts@plt>
  401373:	bf 00 00 00 00       	mov    $0x0,%edi
  401378:	e8 83 fe ff ff       	call   401200 <exit@plt>
  40137d:	48 8d 3d 2a 2e 00 00 	lea    0x2e2a(%rip),%rdi        # 4041ae <_IO_stdin_used+0x1ae>
  401384:	b8 00 00 00 00       	mov    $0x0,%eax
  401389:	e8 32 fd ff ff       	call   4010c0 <printf@plt>
  40138e:	48 8d 3d fb 2c 00 00 	lea    0x2cfb(%rip),%rdi        # 404090 <_IO_stdin_used+0x90>
  401395:	e8 e6 fc ff ff       	call   401080 <puts@plt>
  40139a:	48 8d 3d 17 2d 00 00 	lea    0x2d17(%rip),%rdi        # 4040b8 <_IO_stdin_used+0xb8>
  4013a1:	e8 da fc ff ff       	call   401080 <puts@plt>
  4013a6:	48 8d 3d 1f 2e 00 00 	lea    0x2e1f(%rip),%rdi        # 4041cc <_IO_stdin_used+0x1cc>
  4013ad:	e8 ce fc ff ff       	call   401080 <puts@plt>
  4013b2:	eb bf                	jmp    401373 <usage+0x51>

00000000004013b4 <initialize_target>:
  4013b4:	55                   	push   %rbp
  4013b5:	53                   	push   %rbx
  4013b6:	48 81 ec 08 21 00 00 	sub    $0x2108,%rsp
  4013bd:	89 f5                	mov    %esi,%ebp
  4013bf:	89 3d 5b 61 00 00    	mov    %edi,0x615b(%rip)        # 407520 <check_level>
  4013c5:	8b 3d 65 5d 00 00    	mov    0x5d65(%rip),%edi        # 407130 <target_id>
  4013cb:	e8 4a 1c 00 00       	call   40301a <gencookie>
  4013d0:	89 c7                	mov    %eax,%edi
  4013d2:	89 05 54 61 00 00    	mov    %eax,0x6154(%rip)        # 40752c <cookie>
  4013d8:	e8 3d 1c 00 00       	call   40301a <gencookie>
  4013dd:	89 05 45 61 00 00    	mov    %eax,0x6145(%rip)        # 407528 <authkey>
  4013e3:	8b 05 47 5d 00 00    	mov    0x5d47(%rip),%eax        # 407130 <target_id>
  4013e9:	8d 78 01             	lea    0x1(%rax),%edi
  4013ec:	e8 5f fc ff ff       	call   401050 <srandom@plt>
  4013f1:	e8 7a fd ff ff       	call   401170 <random@plt>
  4013f6:	48 89 c7             	mov    %rax,%rdi
  4013f9:	e8 b6 02 00 00       	call   4016b4 <scramble>
  4013fe:	89 c3                	mov    %eax,%ebx
  401400:	85 ed                	test   %ebp,%ebp
  401402:	75 3d                	jne    401441 <initialize_target+0x8d>
  401404:	b8 00 00 00 00       	mov    $0x0,%eax
  401409:	01 d8                	add    %ebx,%eax
  40140b:	0f b7 c0             	movzwl %ax,%eax
  40140e:	8d 04 c5 00 01 00 00 	lea    0x100(,%rax,8),%eax
  401415:	89 c0                	mov    %eax,%eax
  401417:	48 89 05 72 60 00 00 	mov    %rax,0x6072(%rip)        # 407490 <buf_offset>
  40141e:	c6 05 c4 60 00 00 72 	movb   $0x72,0x60c4(%rip)        # 4074e9 <target_prefix>
  401425:	83 3d 5c 60 00 00 00 	cmpl   $0x0,0x605c(%rip)        # 407488 <notify>
  40142c:	74 09                	je     401437 <initialize_target+0x83>
  40142e:	83 3d fb 60 00 00 00 	cmpl   $0x0,0x60fb(%rip)        # 407530 <is_checker>
  401435:	74 23                	je     40145a <initialize_target+0xa6>
  401437:	48 81 c4 08 21 00 00 	add    $0x2108,%rsp
  40143e:	5b                   	pop    %rbx
  40143f:	5d                   	pop    %rbp
  401440:	c3                   	ret    
  401441:	bf 00 00 00 00       	mov    $0x0,%edi
  401446:	e8 15 fd ff ff       	call   401160 <time@plt>
  40144b:	48 89 c7             	mov    %rax,%rdi
  40144e:	e8 fd fb ff ff       	call   401050 <srandom@plt>
  401453:	e8 18 fd ff ff       	call   401170 <random@plt>
  401458:	eb af                	jmp    401409 <initialize_target+0x55>
  40145a:	48 89 e7             	mov    %rsp,%rdi
  40145d:	be 00 01 00 00       	mov    $0x100,%esi
  401462:	e8 79 fd ff ff       	call   4011e0 <gethostname@plt>
  401467:	89 c3                	mov    %eax,%ebx
  401469:	85 c0                	test   %eax,%eax
  40146b:	75 24                	jne    401491 <initialize_target+0xdd>
  40146d:	48 63 c3             	movslq %ebx,%rax
  401470:	48 8d 15 e9 5c 00 00 	lea    0x5ce9(%rip),%rdx        # 407160 <host_table>
  401477:	48 8b 3c c2          	mov    (%rdx,%rax,8),%rdi
  40147b:	48 85 ff             	test   %rdi,%rdi
  40147e:	74 27                	je     4014a7 <initialize_target+0xf3>
  401480:	48 89 e6             	mov    %rsp,%rsi
  401483:	e8 a8 fb ff ff       	call   401030 <strcasecmp@plt>
  401488:	85 c0                	test   %eax,%eax
  40148a:	74 1b                	je     4014a7 <initialize_target+0xf3>
  40148c:	83 c3 01             	add    $0x1,%ebx
  40148f:	eb dc                	jmp    40146d <initialize_target+0xb9>
  401491:	48 8d 3d 50 2c 00 00 	lea    0x2c50(%rip),%rdi        # 4040e8 <_IO_stdin_used+0xe8>
  401498:	e8 e3 fb ff ff       	call   401080 <puts@plt>
  40149d:	bf 08 00 00 00       	mov    $0x8,%edi
  4014a2:	e8 59 fd ff ff       	call   401200 <exit@plt>
  4014a7:	48 8d bc 24 00 01 00 	lea    0x100(%rsp),%rdi
  4014ae:	00 
  4014af:	e8 cf 18 00 00       	call   402d83 <init_driver>
  4014b4:	85 c0                	test   %eax,%eax
  4014b6:	0f 89 7b ff ff ff    	jns    401437 <initialize_target+0x83>
  4014bc:	48 8d b4 24 00 01 00 	lea    0x100(%rsp),%rsi
  4014c3:	00 
  4014c4:	48 8d 3d 55 2c 00 00 	lea    0x2c55(%rip),%rdi        # 404120 <_IO_stdin_used+0x120>
  4014cb:	b8 00 00 00 00       	mov    $0x0,%eax
  4014d0:	e8 eb fb ff ff       	call   4010c0 <printf@plt>
  4014d5:	bf 08 00 00 00       	mov    $0x8,%edi
  4014da:	e8 21 fd ff ff       	call   401200 <exit@plt>

00000000004014df <main>:
  4014df:	41 56                	push   %r14
  4014e1:	41 55                	push   %r13
  4014e3:	41 54                	push   %r12
  4014e5:	55                   	push   %rbp
  4014e6:	53                   	push   %rbx
  4014e7:	89 fd                	mov    %edi,%ebp
  4014e9:	48 89 f3             	mov    %rsi,%rbx
  4014ec:	48 c7 c6 95 21 40 00 	mov    $0x402195,%rsi
  4014f3:	bf 0b 00 00 00       	mov    $0xb,%edi
  4014f8:	e8 13 fc ff ff       	call   401110 <signal@plt>
  4014fd:	48 c7 c6 41 21 40 00 	mov    $0x402141,%rsi
  401504:	bf 07 00 00 00       	mov    $0x7,%edi
  401509:	e8 02 fc ff ff       	call   401110 <signal@plt>
  40150e:	48 c7 c6 e9 21 40 00 	mov    $0x4021e9,%rsi
  401515:	bf 04 00 00 00       	mov    $0x4,%edi
  40151a:	e8 f1 fb ff ff       	call   401110 <signal@plt>
  40151f:	83 3d 0a 60 00 00 00 	cmpl   $0x0,0x600a(%rip)        # 407530 <is_checker>
  401526:	75 26                	jne    40154e <main+0x6f>
  401528:	4c 8d 25 be 2c 00 00 	lea    0x2cbe(%rip),%r12        # 4041ed <_IO_stdin_used+0x1ed>
  40152f:	48 8b 05 6a 5f 00 00 	mov    0x5f6a(%rip),%rax        # 4074a0 <stdin@@GLIBC_2.2.5>
  401536:	48 89 05 db 5f 00 00 	mov    %rax,0x5fdb(%rip)        # 407518 <infile>
  40153d:	41 bd 00 00 00 00    	mov    $0x0,%r13d
  401543:	41 be 00 00 00 00    	mov    $0x0,%r14d
  401549:	e9 88 00 00 00       	jmp    4015d6 <main+0xf7>
  40154e:	48 c7 c6 3d 22 40 00 	mov    $0x40223d,%rsi
  401555:	bf 0e 00 00 00       	mov    $0xe,%edi
  40155a:	e8 b1 fb ff ff       	call   401110 <signal@plt>
  40155f:	bf 05 00 00 00       	mov    $0x5,%edi
  401564:	e8 77 fb ff ff       	call   4010e0 <alarm@plt>
  401569:	4c 8d 25 75 2c 00 00 	lea    0x2c75(%rip),%r12        # 4041e5 <_IO_stdin_used+0x1e5>
  401570:	eb bd                	jmp    40152f <main+0x50>
  401572:	48 8b 3b             	mov    (%rbx),%rdi
  401575:	e8 a8 fd ff ff       	call   401322 <usage>
  40157a:	48 8d 35 f4 2e 00 00 	lea    0x2ef4(%rip),%rsi        # 404475 <_IO_stdin_used+0x475>
  401581:	48 8b 3d 38 5f 00 00 	mov    0x5f38(%rip),%rdi        # 4074c0 <optarg@@GLIBC_2.2.5>
  401588:	e8 23 fc ff ff       	call   4011b0 <fopen@plt>
  40158d:	48 89 05 84 5f 00 00 	mov    %rax,0x5f84(%rip)        # 407518 <infile>
  401594:	48 85 c0             	test   %rax,%rax
  401597:	75 3d                	jne    4015d6 <main+0xf7>
  401599:	48 8b 15 20 5f 00 00 	mov    0x5f20(%rip),%rdx        # 4074c0 <optarg@@GLIBC_2.2.5>
  4015a0:	48 8d 35 4b 2c 00 00 	lea    0x2c4b(%rip),%rsi        # 4041f2 <_IO_stdin_used+0x1f2>
  4015a7:	48 8b 3d 32 5f 00 00 	mov    0x5f32(%rip),%rdi        # 4074e0 <stderr@@GLIBC_2.2.5>
  4015ae:	e8 7d fb ff ff       	call   401130 <fprintf@plt>
  4015b3:	b8 01 00 00 00       	mov    $0x1,%eax
  4015b8:	e9 ce 00 00 00       	jmp    40168b <main+0x1ac>
  4015bd:	ba 10 00 00 00       	mov    $0x10,%edx
  4015c2:	be 00 00 00 00       	mov    $0x0,%esi
  4015c7:	48 8b 3d f2 5e 00 00 	mov    0x5ef2(%rip),%rdi        # 4074c0 <optarg@@GLIBC_2.2.5>
  4015ce:	e8 fd fb ff ff       	call   4011d0 <strtoul@plt>
  4015d3:	41 89 c6             	mov    %eax,%r14d
  4015d6:	4c 89 e2             	mov    %r12,%rdx
  4015d9:	48 89 de             	mov    %rbx,%rsi
  4015dc:	89 ef                	mov    %ebp,%edi
  4015de:	e8 dd fb ff ff       	call   4011c0 <getopt@plt>
  4015e3:	3c ff                	cmp    $0xff,%al
  4015e5:	74 5d                	je     401644 <main+0x165>
  4015e7:	0f be f0             	movsbl %al,%esi
  4015ea:	83 e8 61             	sub    $0x61,%eax
  4015ed:	3c 10                	cmp    $0x10,%al
  4015ef:	77 3a                	ja     40162b <main+0x14c>
  4015f1:	0f b6 c0             	movzbl %al,%eax
  4015f4:	48 8d 15 35 2c 00 00 	lea    0x2c35(%rip),%rdx        # 404230 <_IO_stdin_used+0x230>
  4015fb:	48 63 04 82          	movslq (%rdx,%rax,4),%rax
  4015ff:	48 01 d0             	add    %rdx,%rax
  401602:	ff e0                	jmp    *%rax
  401604:	ba 0a 00 00 00       	mov    $0xa,%edx
  401609:	be 00 00 00 00       	mov    $0x0,%esi
  40160e:	48 8b 3d ab 5e 00 00 	mov    0x5eab(%rip),%rdi        # 4074c0 <optarg@@GLIBC_2.2.5>
  401615:	e8 26 fb ff ff       	call   401140 <strtol@plt>
  40161a:	41 89 c5             	mov    %eax,%r13d
  40161d:	eb b7                	jmp    4015d6 <main+0xf7>
  40161f:	c7 05 5f 5e 00 00 00 	movl   $0x0,0x5e5f(%rip)        # 407488 <notify>
  401626:	00 00 00 
  401629:	eb ab                	jmp    4015d6 <main+0xf7>
  40162b:	48 8d 3d dd 2b 00 00 	lea    0x2bdd(%rip),%rdi        # 40420f <_IO_stdin_used+0x20f>
  401632:	b8 00 00 00 00       	mov    $0x0,%eax
  401637:	e8 84 fa ff ff       	call   4010c0 <printf@plt>
  40163c:	48 8b 3b             	mov    (%rbx),%rdi
  40163f:	e8 de fc ff ff       	call   401322 <usage>
  401644:	be 01 00 00 00       	mov    $0x1,%esi
  401649:	44 89 ef             	mov    %r13d,%edi
  40164c:	e8 63 fd ff ff       	call   4013b4 <initialize_target>
  401651:	83 3d d8 5e 00 00 00 	cmpl   $0x0,0x5ed8(%rip)        # 407530 <is_checker>
  401658:	74 09                	je     401663 <main+0x184>
  40165a:	44 39 35 c7 5e 00 00 	cmp    %r14d,0x5ec7(%rip)        # 407528 <authkey>
  401661:	75 31                	jne    401694 <main+0x1b5>
  401663:	8b 35 c3 5e 00 00    	mov    0x5ec3(%rip),%esi        # 40752c <cookie>
  401669:	48 8d 3d b2 2b 00 00 	lea    0x2bb2(%rip),%rdi        # 404222 <_IO_stdin_used+0x222>
  401670:	b8 00 00 00 00       	mov    $0x0,%eax
  401675:	e8 46 fa ff ff       	call   4010c0 <printf@plt>
  40167a:	48 8b 3d 0f 5e 00 00 	mov    0x5e0f(%rip),%rdi        # 407490 <buf_offset>
  401681:	e8 09 0c 00 00       	call   40228f <launch>
  401686:	b8 00 00 00 00       	mov    $0x0,%eax
  40168b:	5b                   	pop    %rbx
  40168c:	5d                   	pop    %rbp
  40168d:	41 5c                	pop    %r12
  40168f:	41 5d                	pop    %r13
  401691:	41 5e                	pop    %r14
  401693:	c3                   	ret    
  401694:	44 89 f6             	mov    %r14d,%esi
  401697:	48 8d 3d aa 2a 00 00 	lea    0x2aaa(%rip),%rdi        # 404148 <_IO_stdin_used+0x148>
  40169e:	b8 00 00 00 00       	mov    $0x0,%eax
  4016a3:	e8 18 fa ff ff       	call   4010c0 <printf@plt>
  4016a8:	b8 00 00 00 00       	mov    $0x0,%eax
  4016ad:	e8 63 07 00 00       	call   401e15 <check_fail>
  4016b2:	eb af                	jmp    401663 <main+0x184>

00000000004016b4 <scramble>:
  4016b4:	b8 00 00 00 00       	mov    $0x0,%eax
  4016b9:	eb 11                	jmp    4016cc <scramble+0x18>
  4016bb:	69 d0 52 3b 00 00    	imul   $0x3b52,%eax,%edx
  4016c1:	01 fa                	add    %edi,%edx
  4016c3:	89 c1                	mov    %eax,%ecx
  4016c5:	89 54 8c d0          	mov    %edx,-0x30(%rsp,%rcx,4)
  4016c9:	83 c0 01             	add    $0x1,%eax
  4016cc:	83 f8 09             	cmp    $0x9,%eax
  4016cf:	76 ea                	jbe    4016bb <scramble+0x7>
  4016d1:	8b 44 24 f4          	mov    -0xc(%rsp),%eax
  4016d5:	69 c0 61 5f 00 00    	imul   $0x5f61,%eax,%eax
  4016db:	89 44 24 f4          	mov    %eax,-0xc(%rsp)
  4016df:	8b 44 24 d4          	mov    -0x2c(%rsp),%eax
  4016e3:	69 c0 b8 7d 00 00    	imul   $0x7db8,%eax,%eax
  4016e9:	89 44 24 d4          	mov    %eax,-0x2c(%rsp)
  4016ed:	8b 44 24 d4          	mov    -0x2c(%rsp),%eax
  4016f1:	69 c0 ee e1 00 00    	imul   $0xe1ee,%eax,%eax
  4016f7:	89 44 24 d4          	mov    %eax,-0x2c(%rsp)
  4016fb:	8b 44 24 d4          	mov    -0x2c(%rsp),%eax
  4016ff:	69 c0 c8 24 00 00    	imul   $0x24c8,%eax,%eax
  401705:	89 44 24 d4          	mov    %eax,-0x2c(%rsp)
  401709:	8b 44 24 e0          	mov    -0x20(%rsp),%eax
  40170d:	69 c0 8e 45 00 00    	imul   $0x458e,%eax,%eax
  401713:	89 44 24 e0          	mov    %eax,-0x20(%rsp)
  401717:	8b 44 24 f4          	mov    -0xc(%rsp),%eax
  40171b:	69 c0 f7 34 00 00    	imul   $0x34f7,%eax,%eax
  401721:	89 44 24 f4          	mov    %eax,-0xc(%rsp)
  401725:	8b 44 24 f4          	mov    -0xc(%rsp),%eax
  401729:	69 c0 d8 14 00 00    	imul   $0x14d8,%eax,%eax
  40172f:	89 44 24 f4          	mov    %eax,-0xc(%rsp)
  401733:	8b 44 24 ec          	mov    -0x14(%rsp),%eax
  401737:	69 c0 ed 67 00 00    	imul   $0x67ed,%eax,%eax
  40173d:	89 44 24 ec          	mov    %eax,-0x14(%rsp)
  401741:	8b 44 24 f4          	mov    -0xc(%rsp),%eax
  401745:	69 c0 23 35 00 00    	imul   $0x3523,%eax,%eax
  40174b:	89 44 24 f4          	mov    %eax,-0xc(%rsp)
  40174f:	8b 44 24 e8          	mov    -0x18(%rsp),%eax
  401753:	69 c0 91 1c 00 00    	imul   $0x1c91,%eax,%eax
  401759:	89 44 24 e8          	mov    %eax,-0x18(%rsp)
  40175d:	8b 44 24 d4          	mov    -0x2c(%rsp),%eax
  401761:	69 c0 d1 79 00 00    	imul   $0x79d1,%eax,%eax
  401767:	89 44 24 d4          	mov    %eax,-0x2c(%rsp)
  40176b:	8b 44 24 dc          	mov    -0x24(%rsp),%eax
  40176f:	69 c0 59 e3 00 00    	imul   $0xe359,%eax,%eax
  401775:	89 44 24 dc          	mov    %eax,-0x24(%rsp)
  401779:	8b 44 24 d4          	mov    -0x2c(%rsp),%eax
  40177d:	69 c0 40 9b 00 00    	imul   $0x9b40,%eax,%eax
  401783:	89 44 24 d4          	mov    %eax,-0x2c(%rsp)
  401787:	8b 44 24 e0          	mov    -0x20(%rsp),%eax
  40178b:	69 c0 1f df 00 00    	imul   $0xdf1f,%eax,%eax
  401791:	89 44 24 e0          	mov    %eax,-0x20(%rsp)
  401795:	8b 44 24 e8          	mov    -0x18(%rsp),%eax
  401799:	69 c0 1d d6 00 00    	imul   $0xd61d,%eax,%eax
  40179f:	89 44 24 e8          	mov    %eax,-0x18(%rsp)
  4017a3:	8b 44 24 e0          	mov    -0x20(%rsp),%eax
  4017a7:	69 c0 df 09 00 00    	imul   $0x9df,%eax,%eax
  4017ad:	89 44 24 e0          	mov    %eax,-0x20(%rsp)
  4017b1:	8b 44 24 dc          	mov    -0x24(%rsp),%eax
  4017b5:	69 c0 2d 0b 00 00    	imul   $0xb2d,%eax,%eax
  4017bb:	89 44 24 dc          	mov    %eax,-0x24(%rsp)
  4017bf:	8b 44 24 d0          	mov    -0x30(%rsp),%eax
  4017c3:	69 c0 7b 79 00 00    	imul   $0x797b,%eax,%eax
  4017c9:	89 44 24 d0          	mov    %eax,-0x30(%rsp)
  4017cd:	8b 44 24 f0          	mov    -0x10(%rsp),%eax
  4017d1:	69 c0 30 0b 00 00    	imul   $0xb30,%eax,%eax
  4017d7:	89 44 24 f0          	mov    %eax,-0x10(%rsp)
  4017db:	8b 44 24 e0          	mov    -0x20(%rsp),%eax
  4017df:	69 c0 1d 4c 00 00    	imul   $0x4c1d,%eax,%eax
  4017e5:	89 44 24 e0          	mov    %eax,-0x20(%rsp)
  4017e9:	8b 44 24 d0          	mov    -0x30(%rsp),%eax
  4017ed:	69 c0 00 e3 00 00    	imul   $0xe300,%eax,%eax
  4017f3:	89 44 24 d0          	mov    %eax,-0x30(%rsp)
  4017f7:	8b 44 24 f0          	mov    -0x10(%rsp),%eax
  4017fb:	69 c0 47 be 00 00    	imul   $0xbe47,%eax,%eax
  401801:	89 44 24 f0          	mov    %eax,-0x10(%rsp)
  401805:	8b 44 24 d4          	mov    -0x2c(%rsp),%eax
  401809:	69 c0 f5 a7 00 00    	imul   $0xa7f5,%eax,%eax
  40180f:	89 44 24 d4          	mov    %eax,-0x2c(%rsp)
  401813:	8b 44 24 d4          	mov    -0x2c(%rsp),%eax
  401817:	69 c0 ef 9b 00 00    	imul   $0x9bef,%eax,%eax
  40181d:	89 44 24 d4          	mov    %eax,-0x2c(%rsp)
  401821:	8b 44 24 d8          	mov    -0x28(%rsp),%eax
  401825:	69 c0 d8 73 00 00    	imul   $0x73d8,%eax,%eax
  40182b:	89 44 24 d8          	mov    %eax,-0x28(%rsp)
  40182f:	8b 44 24 dc          	mov    -0x24(%rsp),%eax
  401833:	69 c0 81 3a 00 00    	imul   $0x3a81,%eax,%eax
  401839:	89 44 24 dc          	mov    %eax,-0x24(%rsp)
  40183d:	8b 44 24 e8          	mov    -0x18(%rsp),%eax
  401841:	69 c0 3b 42 00 00    	imul   $0x423b,%eax,%eax
  401847:	89 44 24 e8          	mov    %eax,-0x18(%rsp)
  40184b:	8b 44 24 e4          	mov    -0x1c(%rsp),%eax
  40184f:	69 c0 a6 fb 00 00    	imul   $0xfba6,%eax,%eax
  401855:	89 44 24 e4          	mov    %eax,-0x1c(%rsp)
  401859:	8b 44 24 dc          	mov    -0x24(%rsp),%eax
  40185d:	69 c0 7a 57 00 00    	imul   $0x577a,%eax,%eax
  401863:	89 44 24 dc          	mov    %eax,-0x24(%rsp)
  401867:	8b 44 24 e4          	mov    -0x1c(%rsp),%eax
  40186b:	69 c0 08 ac 00 00    	imul   $0xac08,%eax,%eax
  401871:	89 44 24 e4          	mov    %eax,-0x1c(%rsp)
  401875:	8b 44 24 ec          	mov    -0x14(%rsp),%eax
  401879:	69 c0 ac 01 00 00    	imul   $0x1ac,%eax,%eax
  40187f:	89 44 24 ec          	mov    %eax,-0x14(%rsp)
  401883:	8b 44 24 ec          	mov    -0x14(%rsp),%eax
  401887:	69 c0 15 63 00 00    	imul   $0x6315,%eax,%eax
  40188d:	89 44 24 ec          	mov    %eax,-0x14(%rsp)
  401891:	8b 44 24 f4          	mov    -0xc(%rsp),%eax
  401895:	69 c0 7e 3d 00 00    	imul   $0x3d7e,%eax,%eax
  40189b:	89 44 24 f4          	mov    %eax,-0xc(%rsp)
  40189f:	8b 44 24 e0          	mov    -0x20(%rsp),%eax
  4018a3:	69 c0 f5 f9 00 00    	imul   $0xf9f5,%eax,%eax
  4018a9:	89 44 24 e0          	mov    %eax,-0x20(%rsp)
  4018ad:	8b 44 24 d8          	mov    -0x28(%rsp),%eax
  4018b1:	69 c0 d5 7a 00 00    	imul   $0x7ad5,%eax,%eax
  4018b7:	89 44 24 d8          	mov    %eax,-0x28(%rsp)
  4018bb:	8b 44 24 dc          	mov    -0x24(%rsp),%eax
  4018bf:	69 c0 6d 99 00 00    	imul   $0x996d,%eax,%eax
  4018c5:	89 44 24 dc          	mov    %eax,-0x24(%rsp)
  4018c9:	8b 44 24 f0          	mov    -0x10(%rsp),%eax
  4018cd:	69 c0 27 c7 00 00    	imul   $0xc727,%eax,%eax
  4018d3:	89 44 24 f0          	mov    %eax,-0x10(%rsp)
  4018d7:	8b 44 24 e0          	mov    -0x20(%rsp),%eax
  4018db:	69 c0 ad 55 00 00    	imul   $0x55ad,%eax,%eax
  4018e1:	89 44 24 e0          	mov    %eax,-0x20(%rsp)
  4018e5:	8b 44 24 f0          	mov    -0x10(%rsp),%eax
  4018e9:	69 c0 e9 7d 00 00    	imul   $0x7de9,%eax,%eax
  4018ef:	89 44 24 f0          	mov    %eax,-0x10(%rsp)
  4018f3:	8b 44 24 d4          	mov    -0x2c(%rsp),%eax
  4018f7:	69 c0 35 4c 00 00    	imul   $0x4c35,%eax,%eax
  4018fd:	89 44 24 d4          	mov    %eax,-0x2c(%rsp)
  401901:	8b 44 24 d8          	mov    -0x28(%rsp),%eax
  401905:	69 c0 1c aa 00 00    	imul   $0xaa1c,%eax,%eax
  40190b:	89 44 24 d8          	mov    %eax,-0x28(%rsp)
  40190f:	8b 44 24 ec          	mov    -0x14(%rsp),%eax
  401913:	69 c0 6a df 00 00    	imul   $0xdf6a,%eax,%eax
  401919:	89 44 24 ec          	mov    %eax,-0x14(%rsp)
  40191d:	8b 44 24 e0          	mov    -0x20(%rsp),%eax
  401921:	69 c0 91 a4 00 00    	imul   $0xa491,%eax,%eax
  401927:	89 44 24 e0          	mov    %eax,-0x20(%rsp)
  40192b:	8b 44 24 f4          	mov    -0xc(%rsp),%eax
  40192f:	69 c0 d3 c9 00 00    	imul   $0xc9d3,%eax,%eax
  401935:	89 44 24 f4          	mov    %eax,-0xc(%rsp)
  401939:	8b 44 24 e4          	mov    -0x1c(%rsp),%eax
  40193d:	69 c0 d6 b5 00 00    	imul   $0xb5d6,%eax,%eax
  401943:	89 44 24 e4          	mov    %eax,-0x1c(%rsp)
  401947:	8b 44 24 d8          	mov    -0x28(%rsp),%eax
  40194b:	69 c0 a2 29 00 00    	imul   $0x29a2,%eax,%eax
  401951:	89 44 24 d8          	mov    %eax,-0x28(%rsp)
  401955:	8b 44 24 ec          	mov    -0x14(%rsp),%eax
  401959:	69 c0 c2 2b 00 00    	imul   $0x2bc2,%eax,%eax
  40195f:	89 44 24 ec          	mov    %eax,-0x14(%rsp)
  401963:	8b 44 24 e0          	mov    -0x20(%rsp),%eax
  401967:	69 c0 5b c4 00 00    	imul   $0xc45b,%eax,%eax
  40196d:	89 44 24 e0          	mov    %eax,-0x20(%rsp)
  401971:	8b 44 24 d4          	mov    -0x2c(%rsp),%eax
  401975:	69 c0 48 69 00 00    	imul   $0x6948,%eax,%eax
  40197b:	89 44 24 d4          	mov    %eax,-0x2c(%rsp)
  40197f:	8b 44 24 ec          	mov    -0x14(%rsp),%eax
  401983:	69 c0 ee b1 00 00    	imul   $0xb1ee,%eax,%eax
  401989:	89 44 24 ec          	mov    %eax,-0x14(%rsp)
  40198d:	8b 44 24 d4          	mov    -0x2c(%rsp),%eax
  401991:	69 c0 63 04 00 00    	imul   $0x463,%eax,%eax
  401997:	89 44 24 d4          	mov    %eax,-0x2c(%rsp)
  40199b:	8b 44 24 f0          	mov    -0x10(%rsp),%eax
  40199f:	69 c0 f2 41 00 00    	imul   $0x41f2,%eax,%eax
  4019a5:	89 44 24 f0          	mov    %eax,-0x10(%rsp)
  4019a9:	8b 44 24 dc          	mov    -0x24(%rsp),%eax
  4019ad:	69 c0 10 a3 00 00    	imul   $0xa310,%eax,%eax
  4019b3:	89 44 24 dc          	mov    %eax,-0x24(%rsp)
  4019b7:	8b 44 24 d4          	mov    -0x2c(%rsp),%eax
  4019bb:	69 c0 a7 3a 00 00    	imul   $0x3aa7,%eax,%eax
  4019c1:	89 44 24 d4          	mov    %eax,-0x2c(%rsp)
  4019c5:	8b 44 24 d8          	mov    -0x28(%rsp),%eax
  4019c9:	69 c0 3b 89 00 00    	imul   $0x893b,%eax,%eax
  4019cf:	89 44 24 d8          	mov    %eax,-0x28(%rsp)
  4019d3:	8b 44 24 e4          	mov    -0x1c(%rsp),%eax
  4019d7:	69 c0 bb 12 00 00    	imul   $0x12bb,%eax,%eax
  4019dd:	89 44 24 e4          	mov    %eax,-0x1c(%rsp)
  4019e1:	8b 44 24 d4          	mov    -0x2c(%rsp),%eax
  4019e5:	69 c0 93 0d 00 00    	imul   $0xd93,%eax,%eax
  4019eb:	89 44 24 d4          	mov    %eax,-0x2c(%rsp)
  4019ef:	8b 44 24 f0          	mov    -0x10(%rsp),%eax
  4019f3:	69 c0 af 1f 00 00    	imul   $0x1faf,%eax,%eax
  4019f9:	89 44 24 f0          	mov    %eax,-0x10(%rsp)
  4019fd:	8b 44 24 f0          	mov    -0x10(%rsp),%eax
  401a01:	69 c0 36 cd 00 00    	imul   $0xcd36,%eax,%eax
  401a07:	89 44 24 f0          	mov    %eax,-0x10(%rsp)
  401a0b:	8b 44 24 e8          	mov    -0x18(%rsp),%eax
  401a0f:	69 c0 2f ae 00 00    	imul   $0xae2f,%eax,%eax
  401a15:	89 44 24 e8          	mov    %eax,-0x18(%rsp)
  401a19:	8b 44 24 e4          	mov    -0x1c(%rsp),%eax
  401a1d:	69 c0 5d 5f 00 00    	imul   $0x5f5d,%eax,%eax
  401a23:	89 44 24 e4          	mov    %eax,-0x1c(%rsp)
  401a27:	8b 44 24 ec          	mov    -0x14(%rsp),%eax
  401a2b:	69 c0 8e 3a 00 00    	imul   $0x3a8e,%eax,%eax
  401a31:	89 44 24 ec          	mov    %eax,-0x14(%rsp)
  401a35:	8b 44 24 d4          	mov    -0x2c(%rsp),%eax
  401a39:	69 c0 88 64 00 00    	imul   $0x6488,%eax,%eax
  401a3f:	89 44 24 d4          	mov    %eax,-0x2c(%rsp)
  401a43:	8b 44 24 d4          	mov    -0x2c(%rsp),%eax
  401a47:	69 c0 5f f4 00 00    	imul   $0xf45f,%eax,%eax
  401a4d:	89 44 24 d4          	mov    %eax,-0x2c(%rsp)
  401a51:	8b 44 24 d4          	mov    -0x2c(%rsp),%eax
  401a55:	69 c0 3a bd 00 00    	imul   $0xbd3a,%eax,%eax
  401a5b:	89 44 24 d4          	mov    %eax,-0x2c(%rsp)
  401a5f:	8b 44 24 e8          	mov    -0x18(%rsp),%eax
  401a63:	69 c0 ee b1 00 00    	imul   $0xb1ee,%eax,%eax
  401a69:	89 44 24 e8          	mov    %eax,-0x18(%rsp)
  401a6d:	8b 44 24 d4          	mov    -0x2c(%rsp),%eax
  401a71:	69 c0 a9 f1 00 00    	imul   $0xf1a9,%eax,%eax
  401a77:	89 44 24 d4          	mov    %eax,-0x2c(%rsp)
  401a7b:	8b 44 24 e4          	mov    -0x1c(%rsp),%eax
  401a7f:	69 c0 28 8d 00 00    	imul   $0x8d28,%eax,%eax
  401a85:	89 44 24 e4          	mov    %eax,-0x1c(%rsp)
  401a89:	8b 44 24 d4          	mov    -0x2c(%rsp),%eax
  401a8d:	69 c0 80 8b 00 00    	imul   $0x8b80,%eax,%eax
  401a93:	89 44 24 d4          	mov    %eax,-0x2c(%rsp)
  401a97:	8b 44 24 d0          	mov    -0x30(%rsp),%eax
  401a9b:	69 c0 b2 b5 00 00    	imul   $0xb5b2,%eax,%eax
  401aa1:	89 44 24 d0          	mov    %eax,-0x30(%rsp)
  401aa5:	8b 44 24 d4          	mov    -0x2c(%rsp),%eax
  401aa9:	69 c0 ac 4e 00 00    	imul   $0x4eac,%eax,%eax
  401aaf:	89 44 24 d4          	mov    %eax,-0x2c(%rsp)
  401ab3:	8b 44 24 dc          	mov    -0x24(%rsp),%eax
  401ab7:	69 c0 13 48 00 00    	imul   $0x4813,%eax,%eax
  401abd:	89 44 24 dc          	mov    %eax,-0x24(%rsp)
  401ac1:	b8 00 00 00 00       	mov    $0x0,%eax
  401ac6:	ba 00 00 00 00       	mov    $0x0,%edx
  401acb:	eb 0b                	jmp    401ad8 <scramble+0x424>
  401acd:	89 c1                	mov    %eax,%ecx
  401acf:	8b 4c 8c d0          	mov    -0x30(%rsp,%rcx,4),%ecx
  401ad3:	01 ca                	add    %ecx,%edx
  401ad5:	83 c0 01             	add    $0x1,%eax
  401ad8:	83 f8 09             	cmp    $0x9,%eax
  401adb:	76 f0                	jbe    401acd <scramble+0x419>
  401add:	89 d0                	mov    %edx,%eax
  401adf:	c3                   	ret    

0000000000401ae0 <getbuf>:
  401ae0:	48 83 ec 28          	sub    $0x28,%rsp
  401ae4:	48 89 e7             	mov    %rsp,%rdi
  401ae7:	e8 5c 03 00 00       	call   401e48 <Gets>
  401aec:	b8 01 00 00 00       	mov    $0x1,%eax
  401af1:	48 83 c4 28          	add    $0x28,%rsp
  401af5:	c3                   	ret    

0000000000401af6 <touch1>:
  401af6:	48 83 ec 08          	sub    $0x8,%rsp
  401afa:	c7 05 20 5a 00 00 01 	movl   $0x1,0x5a20(%rip)        # 407524 <vlevel>
  401b01:	00 00 00 
  401b04:	48 8d 3d c0 27 00 00 	lea    0x27c0(%rip),%rdi        # 4042cb <_IO_stdin_used+0x2cb>
  401b0b:	e8 70 f5 ff ff       	call   401080 <puts@plt>
  401b10:	bf 01 00 00 00       	mov    $0x1,%edi
  401b15:	e8 41 05 00 00       	call   40205b <validate>
  401b1a:	bf 00 00 00 00       	mov    $0x0,%edi
  401b1f:	e8 dc f6 ff ff       	call   401200 <exit@plt>

0000000000401b24 <touch2>:
  401b24:	48 83 ec 08          	sub    $0x8,%rsp
  401b28:	89 fe                	mov    %edi,%esi
  401b2a:	c7 05 f0 59 00 00 02 	movl   $0x2,0x59f0(%rip)        # 407524 <vlevel>
  401b31:	00 00 00 
  401b34:	39 3d f2 59 00 00    	cmp    %edi,0x59f2(%rip)        # 40752c <cookie>
  401b3a:	74 25                	je     401b61 <touch2+0x3d>
  401b3c:	48 8d 3d d5 27 00 00 	lea    0x27d5(%rip),%rdi        # 404318 <_IO_stdin_used+0x318>
  401b43:	b8 00 00 00 00       	mov    $0x0,%eax
  401b48:	e8 73 f5 ff ff       	call   4010c0 <printf@plt>
  401b4d:	bf 02 00 00 00       	mov    $0x2,%edi
  401b52:	e8 c2 05 00 00       	call   402119 <fail>
  401b57:	bf 00 00 00 00       	mov    $0x0,%edi
  401b5c:	e8 9f f6 ff ff       	call   401200 <exit@plt>
  401b61:	48 8d 3d 88 27 00 00 	lea    0x2788(%rip),%rdi        # 4042f0 <_IO_stdin_used+0x2f0>
  401b68:	b8 00 00 00 00       	mov    $0x0,%eax
  401b6d:	e8 4e f5 ff ff       	call   4010c0 <printf@plt>
  401b72:	bf 02 00 00 00       	mov    $0x2,%edi
  401b77:	e8 df 04 00 00       	call   40205b <validate>
  401b7c:	eb d9                	jmp    401b57 <touch2+0x33>

0000000000401b7e <hexmatch>:
  401b7e:	41 54                	push   %r12
  401b80:	55                   	push   %rbp
  401b81:	53                   	push   %rbx
  401b82:	48 83 ec 70          	sub    $0x70,%rsp
  401b86:	89 fd                	mov    %edi,%ebp
  401b88:	48 89 f3             	mov    %rsi,%rbx
  401b8b:	e8 e0 f5 ff ff       	call   401170 <random@plt>
  401b90:	48 89 c1             	mov    %rax,%rcx
  401b93:	48 ba 0b d7 a3 70 3d 	movabs $0xa3d70a3d70a3d70b,%rdx
  401b9a:	0a d7 a3 
  401b9d:	48 f7 ea             	imul   %rdx
  401ba0:	48 01 ca             	add    %rcx,%rdx
  401ba3:	48 c1 fa 06          	sar    $0x6,%rdx
  401ba7:	48 89 c8             	mov    %rcx,%rax
  401baa:	48 c1 f8 3f          	sar    $0x3f,%rax
  401bae:	48 29 c2             	sub    %rax,%rdx
  401bb1:	48 8d 04 92          	lea    (%rdx,%rdx,4),%rax
  401bb5:	48 8d 04 80          	lea    (%rax,%rax,4),%rax
  401bb9:	48 c1 e0 02          	shl    $0x2,%rax
  401bbd:	48 29 c1             	sub    %rax,%rcx
  401bc0:	4c 8d 24 0c          	lea    (%rsp,%rcx,1),%r12
  401bc4:	89 ea                	mov    %ebp,%edx
  401bc6:	48 8d 35 1b 27 00 00 	lea    0x271b(%rip),%rsi        # 4042e8 <_IO_stdin_used+0x2e8>
  401bcd:	4c 89 e7             	mov    %r12,%rdi
  401bd0:	b8 00 00 00 00       	mov    $0x0,%eax
  401bd5:	e8 16 f6 ff ff       	call   4011f0 <sprintf@plt>
  401bda:	ba 09 00 00 00       	mov    $0x9,%edx
  401bdf:	4c 89 e6             	mov    %r12,%rsi
  401be2:	48 89 df             	mov    %rbx,%rdi
  401be5:	e8 76 f4 ff ff       	call   401060 <strncmp@plt>
  401bea:	85 c0                	test   %eax,%eax
  401bec:	0f 94 c0             	sete   %al
  401bef:	0f b6 c0             	movzbl %al,%eax
  401bf2:	48 83 c4 70          	add    $0x70,%rsp
  401bf6:	5b                   	pop    %rbx
  401bf7:	5d                   	pop    %rbp
  401bf8:	41 5c                	pop    %r12
  401bfa:	c3                   	ret    

0000000000401bfb <touch3>:
  401bfb:	53                   	push   %rbx
  401bfc:	48 89 fb             	mov    %rdi,%rbx
  401bff:	c7 05 1b 59 00 00 03 	movl   $0x3,0x591b(%rip)        # 407524 <vlevel>
  401c06:	00 00 00 
  401c09:	48 89 fe             	mov    %rdi,%rsi
  401c0c:	8b 3d 1a 59 00 00    	mov    0x591a(%rip),%edi        # 40752c <cookie>
  401c12:	e8 67 ff ff ff       	call   401b7e <hexmatch>
  401c17:	85 c0                	test   %eax,%eax
  401c19:	74 28                	je     401c43 <touch3+0x48>
  401c1b:	48 89 de             	mov    %rbx,%rsi
  401c1e:	48 8d 3d 1b 27 00 00 	lea    0x271b(%rip),%rdi        # 404340 <_IO_stdin_used+0x340>
  401c25:	b8 00 00 00 00       	mov    $0x0,%eax
  401c2a:	e8 91 f4 ff ff       	call   4010c0 <printf@plt>
  401c2f:	bf 03 00 00 00       	mov    $0x3,%edi
  401c34:	e8 22 04 00 00       	call   40205b <validate>
  401c39:	bf 00 00 00 00       	mov    $0x0,%edi
  401c3e:	e8 bd f5 ff ff       	call   401200 <exit@plt>
  401c43:	48 89 de             	mov    %rbx,%rsi
  401c46:	48 8d 3d 1b 27 00 00 	lea    0x271b(%rip),%rdi        # 404368 <_IO_stdin_used+0x368>
  401c4d:	b8 00 00 00 00       	mov    $0x0,%eax
  401c52:	e8 69 f4 ff ff       	call   4010c0 <printf@plt>
  401c57:	bf 03 00 00 00       	mov    $0x3,%edi
  401c5c:	e8 b8 04 00 00       	call   402119 <fail>
  401c61:	eb d6                	jmp    401c39 <touch3+0x3e>

0000000000401c63 <test>:
  401c63:	48 83 ec 08          	sub    $0x8,%rsp
  401c67:	b8 00 00 00 00       	mov    $0x0,%eax
  401c6c:	e8 6f fe ff ff       	call   401ae0 <getbuf>
  401c71:	89 c6                	mov    %eax,%esi
  401c73:	48 8d 3d 16 27 00 00 	lea    0x2716(%rip),%rdi        # 404390 <_IO_stdin_used+0x390>
  401c7a:	b8 00 00 00 00       	mov    $0x0,%eax
  401c7f:	e8 3c f4 ff ff       	call   4010c0 <printf@plt>
  401c84:	48 83 c4 08          	add    $0x8,%rsp
  401c88:	c3                   	ret    

0000000000401c89 <start_farm>:
  401c89:	b8 01 00 00 00       	mov    $0x1,%eax
  401c8e:	c3                   	ret    

0000000000401c8f <setval_211>:
  401c8f:	c7 07 18 90 90 c3    	movl   $0xc3909018,(%rdi)
  401c95:	c3                   	ret    

0000000000401c96 <getval_276>:
  401c96:	b8 77 c7 0a 58       	mov    $0x580ac777,%eax
  401c9b:	c3                   	ret    

0000000000401c9c <getval_360>:
  401c9c:	b8 48 89 c7 92       	mov    $0x92c78948,%eax
  401ca1:	c3                   	ret    

0000000000401ca2 <setval_253>:
  401ca2:	c7 07 48 89 c7 c3    	movl   $0xc3c78948,(%rdi)
  401ca8:	c3                   	ret    

0000000000401ca9 <getval_232>:
  401ca9:	b8 aa 40 89 c7       	mov    $0xc78940aa,%eax
  401cae:	c3                   	ret    

0000000000401caf <addval_240>:
  401caf:	8d 87 79 50 c3 06    	lea    0x6c35079(%rdi),%eax
  401cb5:	c3                   	ret    

0000000000401cb6 <addval_351>:
  401cb6:	8d 87 48 89 c7 c3    	lea    -0x3c3876b8(%rdi),%eax
  401cbc:	c3                   	ret    

0000000000401cbd <setval_228>:
  401cbd:	c7 07 f4 dc 58 90    	movl   $0x9058dcf4,(%rdi)
  401cc3:	c3                   	ret    

0000000000401cc4 <mid_farm>:
  401cc4:	b8 01 00 00 00       	mov    $0x1,%eax
  401cc9:	c3                   	ret    

0000000000401cca <add_xy>:
  401cca:	48 8d 04 37          	lea    (%rdi,%rsi,1),%rax
  401cce:	c3                   	ret    

0000000000401ccf <getval_299>:
  401ccf:	b8 48 89 e0 94       	mov    $0x94e08948,%eax
  401cd4:	c3                   	ret    

0000000000401cd5 <getval_454>:
  401cd5:	b8 89 d1 08 c0       	mov    $0xc008d189,%eax
  401cda:	c3                   	ret    

0000000000401cdb <getval_210>:
  401cdb:	b8 89 c2 00 db       	mov    $0xdb00c289,%eax
  401ce0:	c3                   	ret    

0000000000401ce1 <addval_165>:
  401ce1:	8d 87 89 ce c4 d2    	lea    -0x2d3b3177(%rdi),%eax
  401ce7:	c3                   	ret    

0000000000401ce8 <setval_175>:
  401ce8:	c7 07 48 89 e0 92    	movl   $0x92e08948,(%rdi)
  401cee:	c3                   	ret    

0000000000401cef <getval_332>:
  401cef:	b8 08 89 e0 90       	mov    $0x90e08908,%eax
  401cf4:	c3                   	ret    

0000000000401cf5 <addval_493>:
  401cf5:	8d 87 a8 cb 09 ce    	lea    -0x31f63458(%rdi),%eax
  401cfb:	c3                   	ret    

0000000000401cfc <setval_444>:
  401cfc:	c7 07 d0 09 ce 90    	movl   $0x90ce09d0,(%rdi)
  401d02:	c3                   	ret    

0000000000401d03 <addval_440>:
  401d03:	8d 87 48 89 e0 c7    	lea    -0x381f76b8(%rdi),%eax
  401d09:	c3                   	ret    

0000000000401d0a <getval_237>:
  401d0a:	b8 89 ce a4 d2       	mov    $0xd2a4ce89,%eax
  401d0f:	c3                   	ret    

0000000000401d10 <addval_168>:
  401d10:	8d 87 f5 89 c2 94    	lea    -0x6b3d760b(%rdi),%eax
  401d16:	c3                   	ret    

0000000000401d17 <getval_186>:
  401d17:	b8 89 ce 60 c0       	mov    $0xc060ce89,%eax
  401d1c:	c3                   	ret    

0000000000401d1d <setval_196>:
  401d1d:	c7 07 89 c2 20 c0    	movl   $0xc020c289,(%rdi)
  401d23:	c3                   	ret    

0000000000401d24 <getval_443>:
  401d24:	b8 d9 89 d1 c7       	mov    $0xc7d189d9,%eax
  401d29:	c3                   	ret    

0000000000401d2a <addval_227>:
  401d2a:	8d 87 a9 c2 90 90    	lea    -0x6f6f3d57(%rdi),%eax
  401d30:	c3                   	ret    

0000000000401d31 <addval_281>:
  401d31:	8d 87 88 ce 38 c0    	lea    -0x3fc73178(%rdi),%eax
  401d37:	c3                   	ret    

0000000000401d38 <addval_391>:
  401d38:	8d 87 89 d1 38 db    	lea    -0x24c72e77(%rdi),%eax
  401d3e:	c3                   	ret    

0000000000401d3f <addval_346>:
  401d3f:	8d 87 89 d1 60 d2    	lea    -0x2d9f2e77(%rdi),%eax
  401d45:	c3                   	ret    

0000000000401d46 <getval_442>:
  401d46:	b8 89 ce 90 90       	mov    $0x9090ce89,%eax
  401d4b:	c3                   	ret    

0000000000401d4c <addval_333>:
  401d4c:	8d 87 48 89 e0 c7    	lea    -0x381f76b8(%rdi),%eax
  401d52:	c3                   	ret    

0000000000401d53 <getval_259>:
  401d53:	b8 89 c2 78 d2       	mov    $0xd278c289,%eax
  401d58:	c3                   	ret    

0000000000401d59 <addval_100>:
  401d59:	8d 87 89 c2 c2 f3    	lea    -0xc3d3d77(%rdi),%eax
  401d5f:	c3                   	ret    

0000000000401d60 <getval_412>:
  401d60:	b8 6b bd 89 c2       	mov    $0xc289bd6b,%eax
  401d65:	c3                   	ret    

0000000000401d66 <addval_289>:
  401d66:	8d 87 89 ce 90 c3    	lea    -0x3c6f3177(%rdi),%eax
  401d6c:	c3                   	ret    

0000000000401d6d <addval_311>:
  401d6d:	8d 87 48 89 e0 c3    	lea    -0x3c1f76b8(%rdi),%eax
  401d73:	c3                   	ret    

0000000000401d74 <getval_128>:
  401d74:	b8 89 d1 28 c0       	mov    $0xc028d189,%eax
  401d79:	c3                   	ret    

0000000000401d7a <getval_248>:
  401d7a:	b8 88 d1 90 90       	mov    $0x9090d188,%eax
  401d7f:	c3                   	ret    

0000000000401d80 <getval_451>:
  401d80:	b8 48 89 e0 c3       	mov    $0xc3e08948,%eax
  401d85:	c3                   	ret    

0000000000401d86 <getval_380>:
  401d86:	b8 e7 89 d1 c1       	mov    $0xc1d189e7,%eax
  401d8b:	c3                   	ret    

0000000000401d8c <getval_394>:
  401d8c:	b8 89 d1 30 c9       	mov    $0xc930d189,%eax
  401d91:	c3                   	ret    

0000000000401d92 <setval_244>:
  401d92:	c7 07 7f 89 c2 94    	movl   $0x94c2897f,(%rdi)
  401d98:	c3                   	ret    

0000000000401d99 <addval_452>:
  401d99:	8d 87 58 89 e0 90    	lea    -0x6f1f76a8(%rdi),%eax
  401d9f:	c3                   	ret    

0000000000401da0 <end_farm>:
  401da0:	b8 01 00 00 00       	mov    $0x1,%eax
  401da5:	c3                   	ret    

0000000000401da6 <save_char>:
  401da6:	8b 05 98 63 00 00    	mov    0x6398(%rip),%eax        # 408144 <gets_cnt>
  401dac:	3d ff 03 00 00       	cmp    $0x3ff,%eax
  401db1:	7f 4a                	jg     401dfd <save_char+0x57>
  401db3:	89 f9                	mov    %edi,%ecx
  401db5:	c0 e9 04             	shr    $0x4,%cl
  401db8:	8d 14 40             	lea    (%rax,%rax,2),%edx
  401dbb:	4c 8d 05 ee 28 00 00 	lea    0x28ee(%rip),%r8        # 4046b0 <trans_char>
  401dc2:	83 e1 0f             	and    $0xf,%ecx
  401dc5:	45 0f b6 0c 08       	movzbl (%r8,%rcx,1),%r9d
  401dca:	48 8d 0d 6f 57 00 00 	lea    0x576f(%rip),%rcx        # 407540 <gets_buf>
  401dd1:	48 63 f2             	movslq %edx,%rsi
  401dd4:	44 88 0c 31          	mov    %r9b,(%rcx,%rsi,1)
  401dd8:	8d 72 01             	lea    0x1(%rdx),%esi
  401ddb:	83 e7 0f             	and    $0xf,%edi
  401dde:	41 0f b6 3c 38       	movzbl (%r8,%rdi,1),%edi
  401de3:	48 63 f6             	movslq %esi,%rsi
  401de6:	40 88 3c 31          	mov    %dil,(%rcx,%rsi,1)
  401dea:	83 c2 02             	add    $0x2,%edx
  401ded:	48 63 d2             	movslq %edx,%rdx
  401df0:	c6 04 11 20          	movb   $0x20,(%rcx,%rdx,1)
  401df4:	83 c0 01             	add    $0x1,%eax
  401df7:	89 05 47 63 00 00    	mov    %eax,0x6347(%rip)        # 408144 <gets_cnt>
  401dfd:	c3                   	ret    

0000000000401dfe <save_term>:
  401dfe:	8b 05 40 63 00 00    	mov    0x6340(%rip),%eax        # 408144 <gets_cnt>
  401e04:	8d 04 40             	lea    (%rax,%rax,2),%eax
  401e07:	48 98                	cltq   
  401e09:	48 8d 15 30 57 00 00 	lea    0x5730(%rip),%rdx        # 407540 <gets_buf>
  401e10:	c6 04 02 00          	movb   $0x0,(%rdx,%rax,1)
  401e14:	c3                   	ret    

0000000000401e15 <check_fail>:
  401e15:	48 83 ec 08          	sub    $0x8,%rsp
  401e19:	0f be 35 c9 56 00 00 	movsbl 0x56c9(%rip),%esi        # 4074e9 <target_prefix>
  401e20:	48 8d 0d 19 57 00 00 	lea    0x5719(%rip),%rcx        # 407540 <gets_buf>
  401e27:	8b 15 f3 56 00 00    	mov    0x56f3(%rip),%edx        # 407520 <check_level>
  401e2d:	48 8d 3d 7f 25 00 00 	lea    0x257f(%rip),%rdi        # 4043b3 <_IO_stdin_used+0x3b3>
  401e34:	b8 00 00 00 00       	mov    $0x0,%eax
  401e39:	e8 82 f2 ff ff       	call   4010c0 <printf@plt>
  401e3e:	bf 01 00 00 00       	mov    $0x1,%edi
  401e43:	e8 b8 f3 ff ff       	call   401200 <exit@plt>

0000000000401e48 <Gets>:
  401e48:	41 54                	push   %r12
  401e4a:	55                   	push   %rbp
  401e4b:	53                   	push   %rbx
  401e4c:	49 89 fc             	mov    %rdi,%r12
  401e4f:	c7 05 eb 62 00 00 00 	movl   $0x0,0x62eb(%rip)        # 408144 <gets_cnt>
  401e56:	00 00 00 
  401e59:	48 89 fb             	mov    %rdi,%rbx
  401e5c:	eb 11                	jmp    401e6f <Gets+0x27>
  401e5e:	48 8d 6b 01          	lea    0x1(%rbx),%rbp
  401e62:	88 03                	mov    %al,(%rbx)
  401e64:	0f b6 f8             	movzbl %al,%edi
  401e67:	e8 3a ff ff ff       	call   401da6 <save_char>
  401e6c:	48 89 eb             	mov    %rbp,%rbx
  401e6f:	48 8b 3d a2 56 00 00 	mov    0x56a2(%rip),%rdi        # 407518 <infile>
  401e76:	e8 a5 f3 ff ff       	call   401220 <getc@plt>
  401e7b:	83 f8 ff             	cmp    $0xffffffff,%eax
  401e7e:	74 05                	je     401e85 <Gets+0x3d>
  401e80:	83 f8 0a             	cmp    $0xa,%eax
  401e83:	75 d9                	jne    401e5e <Gets+0x16>
  401e85:	c6 03 00             	movb   $0x0,(%rbx)
  401e88:	b8 00 00 00 00       	mov    $0x0,%eax
  401e8d:	e8 6c ff ff ff       	call   401dfe <save_term>
  401e92:	4c 89 e0             	mov    %r12,%rax
  401e95:	5b                   	pop    %rbx
  401e96:	5d                   	pop    %rbp
  401e97:	41 5c                	pop    %r12
  401e99:	c3                   	ret    

0000000000401e9a <notify_server>:
  401e9a:	83 3d 8f 56 00 00 00 	cmpl   $0x0,0x568f(%rip)        # 407530 <is_checker>
  401ea1:	0f 85 b3 01 00 00    	jne    40205a <notify_server+0x1c0>
  401ea7:	55                   	push   %rbp
  401ea8:	53                   	push   %rbx
  401ea9:	48 81 ec 08 40 00 00 	sub    $0x4008,%rsp
  401eb0:	89 fb                	mov    %edi,%ebx
  401eb2:	81 3d 88 62 00 00 9c 	cmpl   $0x1f9c,0x6288(%rip)        # 408144 <gets_cnt>
  401eb9:	1f 00 00 
  401ebc:	0f 8f b8 00 00 00    	jg     401f7a <notify_server+0xe0>
  401ec2:	44 0f be 0d 1f 56 00 	movsbl 0x561f(%rip),%r9d        # 4074e9 <target_prefix>
  401ec9:	00 
  401eca:	83 3d b7 55 00 00 00 	cmpl   $0x0,0x55b7(%rip)        # 407488 <notify>
  401ed1:	0f 84 be 00 00 00    	je     401f95 <notify_server+0xfb>
  401ed7:	44 8b 05 4a 56 00 00 	mov    0x564a(%rip),%r8d        # 407528 <authkey>
  401ede:	85 db                	test   %ebx,%ebx
  401ee0:	0f 84 ba 00 00 00    	je     401fa0 <notify_server+0x106>
  401ee6:	48 8d 2d e1 24 00 00 	lea    0x24e1(%rip),%rbp        # 4043ce <_IO_stdin_used+0x3ce>
  401eed:	48 8d bc 24 00 20 00 	lea    0x2000(%rsp),%rdi
  401ef4:	00 
  401ef5:	48 8d 05 44 56 00 00 	lea    0x5644(%rip),%rax        # 407540 <gets_buf>
  401efc:	50                   	push   %rax
  401efd:	56                   	push   %rsi
  401efe:	48 89 e9             	mov    %rbp,%rcx
  401f01:	8b 15 29 52 00 00    	mov    0x5229(%rip),%edx        # 407130 <target_id>
  401f07:	48 8d 35 c5 24 00 00 	lea    0x24c5(%rip),%rsi        # 4043d3 <_IO_stdin_used+0x3d3>
  401f0e:	b8 00 00 00 00       	mov    $0x0,%eax
  401f13:	e8 d8 f2 ff ff       	call   4011f0 <sprintf@plt>
  401f18:	48 83 c4 10          	add    $0x10,%rsp
  401f1c:	83 3d 65 55 00 00 00 	cmpl   $0x0,0x5565(%rip)        # 407488 <notify>
  401f23:	0f 84 b7 00 00 00    	je     401fe0 <notify_server+0x146>
  401f29:	85 db                	test   %ebx,%ebx
  401f2b:	0f 84 99 00 00 00    	je     401fca <notify_server+0x130>
  401f31:	48 8d 8c 24 00 20 00 	lea    0x2000(%rsp),%rcx
  401f38:	00 
  401f39:	49 89 e1             	mov    %rsp,%r9
  401f3c:	41 b8 00 00 00 00    	mov    $0x0,%r8d
  401f42:	48 8b 15 ff 51 00 00 	mov    0x51ff(%rip),%rdx        # 407148 <lab>
  401f49:	48 8b 35 30 55 00 00 	mov    0x5530(%rip),%rsi        # 407480 <course>
  401f50:	48 8b 3d e9 51 00 00 	mov    0x51e9(%rip),%rdi        # 407140 <user_id>
  401f57:	e8 20 10 00 00       	call   402f7c <driver_post>
  401f5c:	85 c0                	test   %eax,%eax
  401f5e:	78 4c                	js     401fac <notify_server+0x112>
  401f60:	48 8d 3d b1 25 00 00 	lea    0x25b1(%rip),%rdi        # 404518 <_IO_stdin_used+0x518>
  401f67:	e8 14 f1 ff ff       	call   401080 <puts@plt>
  401f6c:	48 8d 3d 88 24 00 00 	lea    0x2488(%rip),%rdi        # 4043fb <_IO_stdin_used+0x3fb>
  401f73:	e8 08 f1 ff ff       	call   401080 <puts@plt>
  401f78:	eb 5c                	jmp    401fd6 <notify_server+0x13c>
  401f7a:	48 8d 3d 67 25 00 00 	lea    0x2567(%rip),%rdi        # 4044e8 <_IO_stdin_used+0x4e8>
  401f81:	b8 00 00 00 00       	mov    $0x0,%eax
  401f86:	e8 35 f1 ff ff       	call   4010c0 <printf@plt>
  401f8b:	bf 01 00 00 00       	mov    $0x1,%edi
  401f90:	e8 6b f2 ff ff       	call   401200 <exit@plt>
  401f95:	41 b8 ff ff ff ff    	mov    $0xffffffff,%r8d
  401f9b:	e9 3e ff ff ff       	jmp    401ede <notify_server+0x44>
  401fa0:	48 8d 2d 22 24 00 00 	lea    0x2422(%rip),%rbp        # 4043c9 <_IO_stdin_used+0x3c9>
  401fa7:	e9 41 ff ff ff       	jmp    401eed <notify_server+0x53>
  401fac:	48 89 e6             	mov    %rsp,%rsi
  401faf:	48 8d 3d 39 24 00 00 	lea    0x2439(%rip),%rdi        # 4043ef <_IO_stdin_used+0x3ef>
  401fb6:	b8 00 00 00 00       	mov    $0x0,%eax
  401fbb:	e8 00 f1 ff ff       	call   4010c0 <printf@plt>
  401fc0:	bf 01 00 00 00       	mov    $0x1,%edi
  401fc5:	e8 36 f2 ff ff       	call   401200 <exit@plt>
  401fca:	48 8d 3d 34 24 00 00 	lea    0x2434(%rip),%rdi        # 404405 <_IO_stdin_used+0x405>
  401fd1:	e8 aa f0 ff ff       	call   401080 <puts@plt>
  401fd6:	48 81 c4 08 40 00 00 	add    $0x4008,%rsp
  401fdd:	5b                   	pop    %rbx
  401fde:	5d                   	pop    %rbp
  401fdf:	c3                   	ret    
  401fe0:	48 89 ee             	mov    %rbp,%rsi
  401fe3:	48 8d 3d 66 25 00 00 	lea    0x2566(%rip),%rdi        # 404550 <_IO_stdin_used+0x550>
  401fea:	b8 00 00 00 00       	mov    $0x0,%eax
  401fef:	e8 cc f0 ff ff       	call   4010c0 <printf@plt>
  401ff4:	48 8b 35 45 51 00 00 	mov    0x5145(%rip),%rsi        # 407140 <user_id>
  401ffb:	48 8d 3d 0a 24 00 00 	lea    0x240a(%rip),%rdi        # 40440c <_IO_stdin_used+0x40c>
  402002:	b8 00 00 00 00       	mov    $0x0,%eax
  402007:	e8 b4 f0 ff ff       	call   4010c0 <printf@plt>
  40200c:	48 8b 35 6d 54 00 00 	mov    0x546d(%rip),%rsi        # 407480 <course>
  402013:	48 8d 3d ff 23 00 00 	lea    0x23ff(%rip),%rdi        # 404419 <_IO_stdin_used+0x419>
  40201a:	b8 00 00 00 00       	mov    $0x0,%eax
  40201f:	e8 9c f0 ff ff       	call   4010c0 <printf@plt>
  402024:	48 8b 35 1d 51 00 00 	mov    0x511d(%rip),%rsi        # 407148 <lab>
  40202b:	48 8d 3d f3 23 00 00 	lea    0x23f3(%rip),%rdi        # 404425 <_IO_stdin_used+0x425>
  402032:	b8 00 00 00 00       	mov    $0x0,%eax
  402037:	e8 84 f0 ff ff       	call   4010c0 <printf@plt>
  40203c:	48 8d b4 24 00 20 00 	lea    0x2000(%rsp),%rsi
  402043:	00 
  402044:	48 8d 3d e3 23 00 00 	lea    0x23e3(%rip),%rdi        # 40442e <_IO_stdin_used+0x42e>
  40204b:	b8 00 00 00 00       	mov    $0x0,%eax
  402050:	e8 6b f0 ff ff       	call   4010c0 <printf@plt>
  402055:	e9 7c ff ff ff       	jmp    401fd6 <notify_server+0x13c>
  40205a:	c3                   	ret    

000000000040205b <validate>:
  40205b:	53                   	push   %rbx
  40205c:	89 fb                	mov    %edi,%ebx
  40205e:	83 3d cb 54 00 00 00 	cmpl   $0x0,0x54cb(%rip)        # 407530 <is_checker>
  402065:	74 68                	je     4020cf <validate+0x74>
  402067:	39 3d b7 54 00 00    	cmp    %edi,0x54b7(%rip)        # 407524 <vlevel>
  40206d:	75 2d                	jne    40209c <validate+0x41>
  40206f:	8b 35 ab 54 00 00    	mov    0x54ab(%rip),%esi        # 407520 <check_level>
  402075:	39 fe                	cmp    %edi,%esi
  402077:	75 39                	jne    4020b2 <validate+0x57>
  402079:	0f be 35 69 54 00 00 	movsbl 0x5469(%rip),%esi        # 4074e9 <target_prefix>
  402080:	48 8d 0d b9 54 00 00 	lea    0x54b9(%rip),%rcx        # 407540 <gets_buf>
  402087:	89 fa                	mov    %edi,%edx
  402089:	48 8d 3d c8 23 00 00 	lea    0x23c8(%rip),%rdi        # 404458 <_IO_stdin_used+0x458>
  402090:	b8 00 00 00 00       	mov    $0x0,%eax
  402095:	e8 26 f0 ff ff       	call   4010c0 <printf@plt>
  40209a:	5b                   	pop    %rbx
  40209b:	c3                   	ret    
  40209c:	48 8d 3d 97 23 00 00 	lea    0x2397(%rip),%rdi        # 40443a <_IO_stdin_used+0x43a>
  4020a3:	e8 d8 ef ff ff       	call   401080 <puts@plt>
  4020a8:	b8 00 00 00 00       	mov    $0x0,%eax
  4020ad:	e8 63 fd ff ff       	call   401e15 <check_fail>
  4020b2:	89 fa                	mov    %edi,%edx
  4020b4:	48 8d 3d bd 24 00 00 	lea    0x24bd(%rip),%rdi        # 404578 <_IO_stdin_used+0x578>
  4020bb:	b8 00 00 00 00       	mov    $0x0,%eax
  4020c0:	e8 fb ef ff ff       	call   4010c0 <printf@plt>
  4020c5:	b8 00 00 00 00       	mov    $0x0,%eax
  4020ca:	e8 46 fd ff ff       	call   401e15 <check_fail>
  4020cf:	39 3d 4f 54 00 00    	cmp    %edi,0x544f(%rip)        # 407524 <vlevel>
  4020d5:	74 1a                	je     4020f1 <validate+0x96>
  4020d7:	48 8d 3d 5c 23 00 00 	lea    0x235c(%rip),%rdi        # 40443a <_IO_stdin_used+0x43a>
  4020de:	e8 9d ef ff ff       	call   401080 <puts@plt>
  4020e3:	89 de                	mov    %ebx,%esi
  4020e5:	bf 00 00 00 00       	mov    $0x0,%edi
  4020ea:	e8 ab fd ff ff       	call   401e9a <notify_server>
  4020ef:	eb a9                	jmp    40209a <validate+0x3f>
  4020f1:	0f be 15 f1 53 00 00 	movsbl 0x53f1(%rip),%edx        # 4074e9 <target_prefix>
  4020f8:	89 fe                	mov    %edi,%esi
  4020fa:	48 8d 3d 9f 24 00 00 	lea    0x249f(%rip),%rdi        # 4045a0 <_IO_stdin_used+0x5a0>
  402101:	b8 00 00 00 00       	mov    $0x0,%eax
  402106:	e8 b5 ef ff ff       	call   4010c0 <printf@plt>
  40210b:	89 de                	mov    %ebx,%esi
  40210d:	bf 01 00 00 00       	mov    $0x1,%edi
  402112:	e8 83 fd ff ff       	call   401e9a <notify_server>
  402117:	eb 81                	jmp    40209a <validate+0x3f>

0000000000402119 <fail>:
  402119:	48 83 ec 08          	sub    $0x8,%rsp
  40211d:	83 3d 0c 54 00 00 00 	cmpl   $0x0,0x540c(%rip)        # 407530 <is_checker>
  402124:	75 11                	jne    402137 <fail+0x1e>
  402126:	89 fe                	mov    %edi,%esi
  402128:	bf 00 00 00 00       	mov    $0x0,%edi
  40212d:	e8 68 fd ff ff       	call   401e9a <notify_server>
  402132:	48 83 c4 08          	add    $0x8,%rsp
  402136:	c3                   	ret    
  402137:	b8 00 00 00 00       	mov    $0x0,%eax
  40213c:	e8 d4 fc ff ff       	call   401e15 <check_fail>

0000000000402141 <bushandler>:
  402141:	48 83 ec 08          	sub    $0x8,%rsp
  402145:	83 3d e4 53 00 00 00 	cmpl   $0x0,0x53e4(%rip)        # 407530 <is_checker>
  40214c:	74 16                	je     402164 <bushandler+0x23>
  40214e:	48 8d 3d 18 23 00 00 	lea    0x2318(%rip),%rdi        # 40446d <_IO_stdin_used+0x46d>
  402155:	e8 26 ef ff ff       	call   401080 <puts@plt>
  40215a:	b8 00 00 00 00       	mov    $0x0,%eax
  40215f:	e8 b1 fc ff ff       	call   401e15 <check_fail>
  402164:	48 8d 3d 6d 24 00 00 	lea    0x246d(%rip),%rdi        # 4045d8 <_IO_stdin_used+0x5d8>
  40216b:	e8 10 ef ff ff       	call   401080 <puts@plt>
  402170:	48 8d 3d 00 23 00 00 	lea    0x2300(%rip),%rdi        # 404477 <_IO_stdin_used+0x477>
  402177:	e8 04 ef ff ff       	call   401080 <puts@plt>
  40217c:	be 00 00 00 00       	mov    $0x0,%esi
  402181:	bf 00 00 00 00       	mov    $0x0,%edi
  402186:	e8 0f fd ff ff       	call   401e9a <notify_server>
  40218b:	bf 01 00 00 00       	mov    $0x1,%edi
  402190:	e8 6b f0 ff ff       	call   401200 <exit@plt>

0000000000402195 <seghandler>:
  402195:	48 83 ec 08          	sub    $0x8,%rsp
  402199:	83 3d 90 53 00 00 00 	cmpl   $0x0,0x5390(%rip)        # 407530 <is_checker>
  4021a0:	74 16                	je     4021b8 <seghandler+0x23>
  4021a2:	48 8d 3d e4 22 00 00 	lea    0x22e4(%rip),%rdi        # 40448d <_IO_stdin_used+0x48d>
  4021a9:	e8 d2 ee ff ff       	call   401080 <puts@plt>
  4021ae:	b8 00 00 00 00       	mov    $0x0,%eax
  4021b3:	e8 5d fc ff ff       	call   401e15 <check_fail>
  4021b8:	48 8d 3d 39 24 00 00 	lea    0x2439(%rip),%rdi        # 4045f8 <_IO_stdin_used+0x5f8>
  4021bf:	e8 bc ee ff ff       	call   401080 <puts@plt>
  4021c4:	48 8d 3d ac 22 00 00 	lea    0x22ac(%rip),%rdi        # 404477 <_IO_stdin_used+0x477>
  4021cb:	e8 b0 ee ff ff       	call   401080 <puts@plt>
  4021d0:	be 00 00 00 00       	mov    $0x0,%esi
  4021d5:	bf 00 00 00 00       	mov    $0x0,%edi
  4021da:	e8 bb fc ff ff       	call   401e9a <notify_server>
  4021df:	bf 01 00 00 00       	mov    $0x1,%edi
  4021e4:	e8 17 f0 ff ff       	call   401200 <exit@plt>

00000000004021e9 <illegalhandler>:
  4021e9:	48 83 ec 08          	sub    $0x8,%rsp
  4021ed:	83 3d 3c 53 00 00 00 	cmpl   $0x0,0x533c(%rip)        # 407530 <is_checker>
  4021f4:	74 16                	je     40220c <illegalhandler+0x23>
  4021f6:	48 8d 3d a3 22 00 00 	lea    0x22a3(%rip),%rdi        # 4044a0 <_IO_stdin_used+0x4a0>
  4021fd:	e8 7e ee ff ff       	call   401080 <puts@plt>
  402202:	b8 00 00 00 00       	mov    $0x0,%eax
  402207:	e8 09 fc ff ff       	call   401e15 <check_fail>
  40220c:	48 8d 3d 0d 24 00 00 	lea    0x240d(%rip),%rdi        # 404620 <_IO_stdin_used+0x620>
  402213:	e8 68 ee ff ff       	call   401080 <puts@plt>
  402218:	48 8d 3d 58 22 00 00 	lea    0x2258(%rip),%rdi        # 404477 <_IO_stdin_used+0x477>
  40221f:	e8 5c ee ff ff       	call   401080 <puts@plt>
  402224:	be 00 00 00 00       	mov    $0x0,%esi
  402229:	bf 00 00 00 00       	mov    $0x0,%edi
  40222e:	e8 67 fc ff ff       	call   401e9a <notify_server>
  402233:	bf 01 00 00 00       	mov    $0x1,%edi
  402238:	e8 c3 ef ff ff       	call   401200 <exit@plt>

000000000040223d <sigalrmhandler>:
  40223d:	48 83 ec 08          	sub    $0x8,%rsp
  402241:	83 3d e8 52 00 00 00 	cmpl   $0x0,0x52e8(%rip)        # 407530 <is_checker>
  402248:	74 16                	je     402260 <sigalrmhandler+0x23>
  40224a:	48 8d 3d 63 22 00 00 	lea    0x2263(%rip),%rdi        # 4044b4 <_IO_stdin_used+0x4b4>
  402251:	e8 2a ee ff ff       	call   401080 <puts@plt>
  402256:	b8 00 00 00 00       	mov    $0x0,%eax
  40225b:	e8 b5 fb ff ff       	call   401e15 <check_fail>
  402260:	be 05 00 00 00       	mov    $0x5,%esi
  402265:	48 8d 3d e4 23 00 00 	lea    0x23e4(%rip),%rdi        # 404650 <_IO_stdin_used+0x650>
  40226c:	b8 00 00 00 00       	mov    $0x0,%eax
  402271:	e8 4a ee ff ff       	call   4010c0 <printf@plt>
  402276:	be 00 00 00 00       	mov    $0x0,%esi
  40227b:	bf 00 00 00 00       	mov    $0x0,%edi
  402280:	e8 15 fc ff ff       	call   401e9a <notify_server>
  402285:	bf 01 00 00 00       	mov    $0x1,%edi
  40228a:	e8 71 ef ff ff       	call   401200 <exit@plt>

000000000040228f <launch>:
  40228f:	55                   	push   %rbp
  402290:	48 89 e5             	mov    %rsp,%rbp
  402293:	48 89 fa             	mov    %rdi,%rdx
  402296:	48 8d 47 17          	lea    0x17(%rdi),%rax
  40229a:	48 83 e0 f0          	and    $0xfffffffffffffff0,%rax
  40229e:	48 29 c4             	sub    %rax,%rsp
  4022a1:	48 8d 7c 24 0f       	lea    0xf(%rsp),%rdi
  4022a6:	48 83 e7 f0          	and    $0xfffffffffffffff0,%rdi
  4022aa:	be f4 00 00 00       	mov    $0xf4,%esi
  4022af:	e8 1c ee ff ff       	call   4010d0 <memset@plt>
  4022b4:	48 8b 05 e5 51 00 00 	mov    0x51e5(%rip),%rax        # 4074a0 <stdin@@GLIBC_2.2.5>
  4022bb:	48 39 05 56 52 00 00 	cmp    %rax,0x5256(%rip)        # 407518 <infile>
  4022c2:	74 2b                	je     4022ef <launch+0x60>
  4022c4:	c7 05 56 52 00 00 00 	movl   $0x0,0x5256(%rip)        # 407524 <vlevel>
  4022cb:	00 00 00 
  4022ce:	b8 00 00 00 00       	mov    $0x0,%eax
  4022d3:	e8 8b f9 ff ff       	call   401c63 <test>
  4022d8:	83 3d 51 52 00 00 00 	cmpl   $0x0,0x5251(%rip)        # 407530 <is_checker>
  4022df:	75 21                	jne    402302 <launch+0x73>
  4022e1:	48 8d 3d ec 21 00 00 	lea    0x21ec(%rip),%rdi        # 4044d4 <_IO_stdin_used+0x4d4>
  4022e8:	e8 93 ed ff ff       	call   401080 <puts@plt>
  4022ed:	c9                   	leave  
  4022ee:	c3                   	ret    
  4022ef:	48 8d 3d c6 21 00 00 	lea    0x21c6(%rip),%rdi        # 4044bc <_IO_stdin_used+0x4bc>
  4022f6:	b8 00 00 00 00       	mov    $0x0,%eax
  4022fb:	e8 c0 ed ff ff       	call   4010c0 <printf@plt>
  402300:	eb c2                	jmp    4022c4 <launch+0x35>
  402302:	48 8d 3d c0 21 00 00 	lea    0x21c0(%rip),%rdi        # 4044c9 <_IO_stdin_used+0x4c9>
  402309:	e8 72 ed ff ff       	call   401080 <puts@plt>
  40230e:	b8 00 00 00 00       	mov    $0x0,%eax
  402313:	e8 fd fa ff ff       	call   401e15 <check_fail>

0000000000402318 <stable_launch>:
  402318:	53                   	push   %rbx
  402319:	48 89 3d f0 51 00 00 	mov    %rdi,0x51f0(%rip)        # 407510 <global_offset>
  402320:	41 b9 00 00 00 00    	mov    $0x0,%r9d
  402326:	41 b8 00 00 00 00    	mov    $0x0,%r8d
  40232c:	b9 32 01 00 00       	mov    $0x132,%ecx
  402331:	ba 07 00 00 00       	mov    $0x7,%edx
  402336:	be 00 00 10 00       	mov    $0x100000,%esi
  40233b:	bf 00 60 58 55       	mov    $0x55586000,%edi
  402340:	e8 6b ed ff ff       	call   4010b0 <mmap@plt>
  402345:	48 89 c3             	mov    %rax,%rbx
  402348:	48 3d 00 60 58 55    	cmp    $0x55586000,%rax
  40234e:	75 43                	jne    402393 <stable_launch+0x7b>
  402350:	48 8d 90 f8 ff 0f 00 	lea    0xffff8(%rax),%rdx
  402357:	48 89 15 aa 51 00 00 	mov    %rdx,0x51aa(%rip)        # 407508 <stack_top>
  40235e:	48 89 e0             	mov    %rsp,%rax
  402361:	48 89 d4             	mov    %rdx,%rsp
  402364:	48 89 c2             	mov    %rax,%rdx
  402367:	48 89 15 92 51 00 00 	mov    %rdx,0x5192(%rip)        # 407500 <global_save_stack>
  40236e:	48 8b 3d 9b 51 00 00 	mov    0x519b(%rip),%rdi        # 407510 <global_offset>
  402375:	e8 15 ff ff ff       	call   40228f <launch>
  40237a:	48 8b 05 7f 51 00 00 	mov    0x517f(%rip),%rax        # 407500 <global_save_stack>
  402381:	48 89 c4             	mov    %rax,%rsp
  402384:	be 00 00 10 00       	mov    $0x100000,%esi
  402389:	48 89 df             	mov    %rbx,%rdi
  40238c:	e8 ff ed ff ff       	call   401190 <munmap@plt>
  402391:	5b                   	pop    %rbx
  402392:	c3                   	ret    
  402393:	be 00 00 10 00       	mov    $0x100000,%esi
  402398:	48 89 c7             	mov    %rax,%rdi
  40239b:	e8 f0 ed ff ff       	call   401190 <munmap@plt>
  4023a0:	ba 00 60 58 55       	mov    $0x55586000,%edx
  4023a5:	48 8d 35 dc 22 00 00 	lea    0x22dc(%rip),%rsi        # 404688 <_IO_stdin_used+0x688>
  4023ac:	48 8b 3d 2d 51 00 00 	mov    0x512d(%rip),%rdi        # 4074e0 <stderr@@GLIBC_2.2.5>
  4023b3:	b8 00 00 00 00       	mov    $0x0,%eax
  4023b8:	e8 73 ed ff ff       	call   401130 <fprintf@plt>
  4023bd:	bf 01 00 00 00       	mov    $0x1,%edi
  4023c2:	e8 39 ee ff ff       	call   401200 <exit@plt>

00000000004023c7 <rio_readinitb>:
  4023c7:	89 37                	mov    %esi,(%rdi)
  4023c9:	c7 47 04 00 00 00 00 	movl   $0x0,0x4(%rdi)
  4023d0:	48 8d 47 10          	lea    0x10(%rdi),%rax
  4023d4:	48 89 47 08          	mov    %rax,0x8(%rdi)
  4023d8:	c3                   	ret    

00000000004023d9 <sigalrm_handler>:
  4023d9:	48 83 ec 08          	sub    $0x8,%rsp
  4023dd:	ba 00 00 00 00       	mov    $0x0,%edx
  4023e2:	48 8d 35 d7 22 00 00 	lea    0x22d7(%rip),%rsi        # 4046c0 <trans_char+0x10>
  4023e9:	48 8b 3d f0 50 00 00 	mov    0x50f0(%rip),%rdi        # 4074e0 <stderr@@GLIBC_2.2.5>
  4023f0:	b8 00 00 00 00       	mov    $0x0,%eax
  4023f5:	e8 36 ed ff ff       	call   401130 <fprintf@plt>
  4023fa:	bf 01 00 00 00       	mov    $0x1,%edi
  4023ff:	e8 fc ed ff ff       	call   401200 <exit@plt>

0000000000402404 <urlencode>:
  402404:	41 54                	push   %r12
  402406:	55                   	push   %rbp
  402407:	53                   	push   %rbx
  402408:	48 83 ec 10          	sub    $0x10,%rsp
  40240c:	48 89 fb             	mov    %rdi,%rbx
  40240f:	48 89 f5             	mov    %rsi,%rbp
  402412:	e8 89 ec ff ff       	call   4010a0 <strlen@plt>
  402417:	eb 0e                	jmp    402427 <urlencode+0x23>
  402419:	88 55 00             	mov    %dl,0x0(%rbp)
  40241c:	48 8d 6d 01          	lea    0x1(%rbp),%rbp
  402420:	48 83 c3 01          	add    $0x1,%rbx
  402424:	44 89 e0             	mov    %r12d,%eax
  402427:	44 8d 60 ff          	lea    -0x1(%rax),%r12d
  40242b:	85 c0                	test   %eax,%eax
  40242d:	0f 84 95 00 00 00    	je     4024c8 <urlencode+0xc4>
  402433:	0f b6 13             	movzbl (%rbx),%edx
  402436:	80 fa 2a             	cmp    $0x2a,%dl
  402439:	0f 94 c1             	sete   %cl
  40243c:	80 fa 2d             	cmp    $0x2d,%dl
  40243f:	0f 94 c0             	sete   %al
  402442:	08 c1                	or     %al,%cl
  402444:	75 d3                	jne    402419 <urlencode+0x15>
  402446:	80 fa 2e             	cmp    $0x2e,%dl
  402449:	74 ce                	je     402419 <urlencode+0x15>
  40244b:	80 fa 5f             	cmp    $0x5f,%dl
  40244e:	74 c9                	je     402419 <urlencode+0x15>
  402450:	8d 42 d0             	lea    -0x30(%rdx),%eax
  402453:	3c 09                	cmp    $0x9,%al
  402455:	76 c2                	jbe    402419 <urlencode+0x15>
  402457:	8d 42 bf             	lea    -0x41(%rdx),%eax
  40245a:	3c 19                	cmp    $0x19,%al
  40245c:	76 bb                	jbe    402419 <urlencode+0x15>
  40245e:	8d 42 9f             	lea    -0x61(%rdx),%eax
  402461:	3c 19                	cmp    $0x19,%al
  402463:	76 b4                	jbe    402419 <urlencode+0x15>
  402465:	80 fa 20             	cmp    $0x20,%dl
  402468:	74 4c                	je     4024b6 <urlencode+0xb2>
  40246a:	8d 42 e0             	lea    -0x20(%rdx),%eax
  40246d:	3c 5f                	cmp    $0x5f,%al
  40246f:	0f 96 c1             	setbe  %cl
  402472:	80 fa 09             	cmp    $0x9,%dl
  402475:	0f 94 c0             	sete   %al
  402478:	08 c1                	or     %al,%cl
  40247a:	74 47                	je     4024c3 <urlencode+0xbf>
  40247c:	0f b6 d2             	movzbl %dl,%edx
  40247f:	48 8d 7c 24 08       	lea    0x8(%rsp),%rdi
  402484:	48 8d 35 ca 22 00 00 	lea    0x22ca(%rip),%rsi        # 404755 <trans_char+0xa5>
  40248b:	b8 00 00 00 00       	mov    $0x0,%eax
  402490:	e8 5b ed ff ff       	call   4011f0 <sprintf@plt>
  402495:	0f b6 44 24 08       	movzbl 0x8(%rsp),%eax
  40249a:	88 45 00             	mov    %al,0x0(%rbp)
  40249d:	0f b6 44 24 09       	movzbl 0x9(%rsp),%eax
  4024a2:	88 45 01             	mov    %al,0x1(%rbp)
  4024a5:	0f b6 44 24 0a       	movzbl 0xa(%rsp),%eax
  4024aa:	88 45 02             	mov    %al,0x2(%rbp)
  4024ad:	48 8d 6d 03          	lea    0x3(%rbp),%rbp
  4024b1:	e9 6a ff ff ff       	jmp    402420 <urlencode+0x1c>
  4024b6:	c6 45 00 2b          	movb   $0x2b,0x0(%rbp)
  4024ba:	48 8d 6d 01          	lea    0x1(%rbp),%rbp
  4024be:	e9 5d ff ff ff       	jmp    402420 <urlencode+0x1c>
  4024c3:	b8 ff ff ff ff       	mov    $0xffffffff,%eax
  4024c8:	48 83 c4 10          	add    $0x10,%rsp
  4024cc:	5b                   	pop    %rbx
  4024cd:	5d                   	pop    %rbp
  4024ce:	41 5c                	pop    %r12
  4024d0:	c3                   	ret    

00000000004024d1 <rio_writen>:
  4024d1:	41 55                	push   %r13
  4024d3:	41 54                	push   %r12
  4024d5:	55                   	push   %rbp
  4024d6:	53                   	push   %rbx
  4024d7:	48 83 ec 08          	sub    $0x8,%rsp
  4024db:	41 89 fc             	mov    %edi,%r12d
  4024de:	48 89 f5             	mov    %rsi,%rbp
  4024e1:	49 89 d5             	mov    %rdx,%r13
  4024e4:	48 89 d3             	mov    %rdx,%rbx
  4024e7:	eb 06                	jmp    4024ef <rio_writen+0x1e>
  4024e9:	48 29 c3             	sub    %rax,%rbx
  4024ec:	48 01 c5             	add    %rax,%rbp
  4024ef:	48 85 db             	test   %rbx,%rbx
  4024f2:	74 24                	je     402518 <rio_writen+0x47>
  4024f4:	48 89 da             	mov    %rbx,%rdx
  4024f7:	48 89 ee             	mov    %rbp,%rsi
  4024fa:	44 89 e7             	mov    %r12d,%edi
  4024fd:	e8 8e eb ff ff       	call   401090 <write@plt>
  402502:	48 85 c0             	test   %rax,%rax
  402505:	7f e2                	jg     4024e9 <rio_writen+0x18>
  402507:	e8 34 eb ff ff       	call   401040 <__errno_location@plt>
  40250c:	83 38 04             	cmpl   $0x4,(%rax)
  40250f:	75 15                	jne    402526 <rio_writen+0x55>
  402511:	b8 00 00 00 00       	mov    $0x0,%eax
  402516:	eb d1                	jmp    4024e9 <rio_writen+0x18>
  402518:	4c 89 e8             	mov    %r13,%rax
  40251b:	48 83 c4 08          	add    $0x8,%rsp
  40251f:	5b                   	pop    %rbx
  402520:	5d                   	pop    %rbp
  402521:	41 5c                	pop    %r12
  402523:	41 5d                	pop    %r13
  402525:	c3                   	ret    
  402526:	48 c7 c0 ff ff ff ff 	mov    $0xffffffffffffffff,%rax
  40252d:	eb ec                	jmp    40251b <rio_writen+0x4a>

000000000040252f <rio_read>:
  40252f:	41 55                	push   %r13
  402531:	41 54                	push   %r12
  402533:	55                   	push   %rbp
  402534:	53                   	push   %rbx
  402535:	48 83 ec 08          	sub    $0x8,%rsp
  402539:	48 89 fb             	mov    %rdi,%rbx
  40253c:	49 89 f5             	mov    %rsi,%r13
  40253f:	49 89 d4             	mov    %rdx,%r12
  402542:	eb 0a                	jmp    40254e <rio_read+0x1f>
  402544:	e8 f7 ea ff ff       	call   401040 <__errno_location@plt>
  402549:	83 38 04             	cmpl   $0x4,(%rax)
  40254c:	75 5a                	jne    4025a8 <rio_read+0x79>
  40254e:	8b 6b 04             	mov    0x4(%rbx),%ebp
  402551:	85 ed                	test   %ebp,%ebp
  402553:	7f 22                	jg     402577 <rio_read+0x48>
  402555:	48 8d 6b 10          	lea    0x10(%rbx),%rbp
  402559:	ba 00 20 00 00       	mov    $0x2000,%edx
  40255e:	48 89 ee             	mov    %rbp,%rsi
  402561:	8b 3b                	mov    (%rbx),%edi
  402563:	e8 98 eb ff ff       	call   401100 <read@plt>
  402568:	89 43 04             	mov    %eax,0x4(%rbx)
  40256b:	85 c0                	test   %eax,%eax
  40256d:	78 d5                	js     402544 <rio_read+0x15>
  40256f:	74 40                	je     4025b1 <rio_read+0x82>
  402571:	48 89 6b 08          	mov    %rbp,0x8(%rbx)
  402575:	eb d7                	jmp    40254e <rio_read+0x1f>
  402577:	89 e8                	mov    %ebp,%eax
  402579:	4c 39 e0             	cmp    %r12,%rax
  40257c:	72 03                	jb     402581 <rio_read+0x52>
  40257e:	44 89 e5             	mov    %r12d,%ebp
  402581:	4c 63 e5             	movslq %ebp,%r12
  402584:	48 8b 73 08          	mov    0x8(%rbx),%rsi
  402588:	4c 89 e2             	mov    %r12,%rdx
  40258b:	4c 89 ef             	mov    %r13,%rdi
  40258e:	e8 bd eb ff ff       	call   401150 <memcpy@plt>
  402593:	4c 01 63 08          	add    %r12,0x8(%rbx)
  402597:	29 6b 04             	sub    %ebp,0x4(%rbx)
  40259a:	4c 89 e0             	mov    %r12,%rax
  40259d:	48 83 c4 08          	add    $0x8,%rsp
  4025a1:	5b                   	pop    %rbx
  4025a2:	5d                   	pop    %rbp
  4025a3:	41 5c                	pop    %r12
  4025a5:	41 5d                	pop    %r13
  4025a7:	c3                   	ret    
  4025a8:	48 c7 c0 ff ff ff ff 	mov    $0xffffffffffffffff,%rax
  4025af:	eb ec                	jmp    40259d <rio_read+0x6e>
  4025b1:	b8 00 00 00 00       	mov    $0x0,%eax
  4025b6:	eb e5                	jmp    40259d <rio_read+0x6e>

00000000004025b8 <rio_readlineb>:
  4025b8:	41 55                	push   %r13
  4025ba:	41 54                	push   %r12
  4025bc:	55                   	push   %rbp
  4025bd:	53                   	push   %rbx
  4025be:	48 83 ec 18          	sub    $0x18,%rsp
  4025c2:	49 89 fd             	mov    %rdi,%r13
  4025c5:	48 89 f5             	mov    %rsi,%rbp
  4025c8:	49 89 d4             	mov    %rdx,%r12
  4025cb:	bb 01 00 00 00       	mov    $0x1,%ebx
  4025d0:	eb 18                	jmp    4025ea <rio_readlineb+0x32>
  4025d2:	85 c0                	test   %eax,%eax
  4025d4:	75 55                	jne    40262b <rio_readlineb+0x73>
  4025d6:	48 83 fb 01          	cmp    $0x1,%rbx
  4025da:	75 3d                	jne    402619 <rio_readlineb+0x61>
  4025dc:	b8 00 00 00 00       	mov    $0x0,%eax
  4025e1:	eb 3d                	jmp    402620 <rio_readlineb+0x68>
  4025e3:	48 83 c3 01          	add    $0x1,%rbx
  4025e7:	48 89 d5             	mov    %rdx,%rbp
  4025ea:	4c 39 e3             	cmp    %r12,%rbx
  4025ed:	73 2a                	jae    402619 <rio_readlineb+0x61>
  4025ef:	48 8d 74 24 0f       	lea    0xf(%rsp),%rsi
  4025f4:	ba 01 00 00 00       	mov    $0x1,%edx
  4025f9:	4c 89 ef             	mov    %r13,%rdi
  4025fc:	e8 2e ff ff ff       	call   40252f <rio_read>
  402601:	83 f8 01             	cmp    $0x1,%eax
  402604:	75 cc                	jne    4025d2 <rio_readlineb+0x1a>
  402606:	48 8d 55 01          	lea    0x1(%rbp),%rdx
  40260a:	0f b6 44 24 0f       	movzbl 0xf(%rsp),%eax
  40260f:	88 45 00             	mov    %al,0x0(%rbp)
  402612:	3c 0a                	cmp    $0xa,%al
  402614:	75 cd                	jne    4025e3 <rio_readlineb+0x2b>
  402616:	48 89 d5             	mov    %rdx,%rbp
  402619:	c6 45 00 00          	movb   $0x0,0x0(%rbp)
  40261d:	48 89 d8             	mov    %rbx,%rax
  402620:	48 83 c4 18          	add    $0x18,%rsp
  402624:	5b                   	pop    %rbx
  402625:	5d                   	pop    %rbp
  402626:	41 5c                	pop    %r12
  402628:	41 5d                	pop    %r13
  40262a:	c3                   	ret    
  40262b:	48 c7 c0 ff ff ff ff 	mov    $0xffffffffffffffff,%rax
  402632:	eb ec                	jmp    402620 <rio_readlineb+0x68>

0000000000402634 <submitr>:
  402634:	41 57                	push   %r15
  402636:	41 56                	push   %r14
  402638:	41 55                	push   %r13
  40263a:	41 54                	push   %r12
  40263c:	55                   	push   %rbp
  40263d:	53                   	push   %rbx
  40263e:	48 81 ec 58 a0 00 00 	sub    $0xa058,%rsp
  402645:	49 89 fc             	mov    %rdi,%r12
  402648:	89 74 24 10          	mov    %esi,0x10(%rsp)
  40264c:	49 89 d6             	mov    %rdx,%r14
  40264f:	48 89 4c 24 08       	mov    %rcx,0x8(%rsp)
  402654:	4c 89 44 24 18       	mov    %r8,0x18(%rsp)
  402659:	4d 89 cd             	mov    %r9,%r13
  40265c:	48 8b ac 24 90 a0 00 	mov    0xa090(%rsp),%rbp
  402663:	00 
  402664:	c7 84 24 2c 20 00 00 	movl   $0x0,0x202c(%rsp)
  40266b:	00 00 00 00 
  40266f:	ba 00 00 00 00       	mov    $0x0,%edx
  402674:	be 01 00 00 00       	mov    $0x1,%esi
  402679:	bf 02 00 00 00       	mov    $0x2,%edi
  40267e:	e8 ad eb ff ff       	call   401230 <socket@plt>
  402683:	85 c0                	test   %eax,%eax
  402685:	0f 88 6c 02 00 00    	js     4028f7 <submitr+0x2c3>
  40268b:	89 c3                	mov    %eax,%ebx
  40268d:	4c 89 e7             	mov    %r12,%rdi
  402690:	e8 8b ea ff ff       	call   401120 <gethostbyname@plt>
  402695:	48 85 c0             	test   %rax,%rax
  402698:	0f 84 a5 02 00 00    	je     402943 <submitr+0x30f>
  40269e:	4c 8d bc 24 40 a0 00 	lea    0xa040(%rsp),%r15
  4026a5:	00 
  4026a6:	48 c7 84 24 40 a0 00 	movq   $0x0,0xa040(%rsp)
  4026ad:	00 00 00 00 00 
  4026b2:	48 c7 84 24 48 a0 00 	movq   $0x0,0xa048(%rsp)
  4026b9:	00 00 00 00 00 
  4026be:	66 c7 84 24 40 a0 00 	movw   $0x2,0xa040(%rsp)
  4026c5:	00 02 00 
  4026c8:	48 8b 48 18          	mov    0x18(%rax),%rcx
  4026cc:	48 63 50 14          	movslq 0x14(%rax),%rdx
  4026d0:	48 8d bc 24 44 a0 00 	lea    0xa044(%rsp),%rdi
  4026d7:	00 
  4026d8:	48 8b 31             	mov    (%rcx),%rsi
  4026db:	e8 c0 ea ff ff       	call   4011a0 <memmove@plt>
  4026e0:	0f b7 74 24 10       	movzwl 0x10(%rsp),%esi
  4026e5:	66 c1 c6 08          	rol    $0x8,%si
  4026e9:	66 89 b4 24 42 a0 00 	mov    %si,0xa042(%rsp)
  4026f0:	00 
  4026f1:	ba 10 00 00 00       	mov    $0x10,%edx
  4026f6:	4c 89 fe             	mov    %r15,%rsi
  4026f9:	89 df                	mov    %ebx,%edi
  4026fb:	e8 10 eb ff ff       	call   401210 <connect@plt>
  402700:	85 c0                	test   %eax,%eax
  402702:	0f 88 a3 02 00 00    	js     4029ab <submitr+0x377>
  402708:	4c 89 ef             	mov    %r13,%rdi
  40270b:	e8 90 e9 ff ff       	call   4010a0 <strlen@plt>
  402710:	49 89 c7             	mov    %rax,%r15
  402713:	4c 89 f7             	mov    %r14,%rdi
  402716:	e8 85 e9 ff ff       	call   4010a0 <strlen@plt>
  40271b:	48 89 44 24 10       	mov    %rax,0x10(%rsp)
  402720:	48 8b 7c 24 08       	mov    0x8(%rsp),%rdi
  402725:	e8 76 e9 ff ff       	call   4010a0 <strlen@plt>
  40272a:	48 03 44 24 10       	add    0x10(%rsp),%rax
  40272f:	48 89 44 24 10       	mov    %rax,0x10(%rsp)
  402734:	48 8b 7c 24 18       	mov    0x18(%rsp),%rdi
  402739:	e8 62 e9 ff ff       	call   4010a0 <strlen@plt>
  40273e:	48 03 44 24 10       	add    0x10(%rsp),%rax
  402743:	4b 8d 14 7f          	lea    (%r15,%r15,2),%rdx
  402747:	48 8d 84 10 80 00 00 	lea    0x80(%rax,%rdx,1),%rax
  40274e:	00 
  40274f:	48 3d 00 20 00 00    	cmp    $0x2000,%rax
  402755:	0f 87 aa 02 00 00    	ja     402a05 <submitr+0x3d1>
  40275b:	48 8d b4 24 30 40 00 	lea    0x4030(%rsp),%rsi
  402762:	00 
  402763:	b9 00 04 00 00       	mov    $0x400,%ecx
  402768:	b8 00 00 00 00       	mov    $0x0,%eax
  40276d:	48 89 f7             	mov    %rsi,%rdi
  402770:	f3 48 ab             	rep stos %rax,%es:(%rdi)
  402773:	4c 89 ef             	mov    %r13,%rdi
  402776:	e8 89 fc ff ff       	call   402404 <urlencode>
  40277b:	85 c0                	test   %eax,%eax
  40277d:	0f 88 f5 02 00 00    	js     402a78 <submitr+0x444>
  402783:	4c 8d ac 24 30 60 00 	lea    0x6030(%rsp),%r13
  40278a:	00 
  40278b:	4d 89 e1             	mov    %r12,%r9
  40278e:	4c 8d 84 24 30 40 00 	lea    0x4030(%rsp),%r8
  402795:	00 
  402796:	4c 89 f1             	mov    %r14,%rcx
  402799:	48 8b 54 24 08       	mov    0x8(%rsp),%rdx
  40279e:	48 8d 35 43 1f 00 00 	lea    0x1f43(%rip),%rsi        # 4046e8 <trans_char+0x38>
  4027a5:	4c 89 ef             	mov    %r13,%rdi
  4027a8:	b8 00 00 00 00       	mov    $0x0,%eax
  4027ad:	e8 3e ea ff ff       	call   4011f0 <sprintf@plt>
  4027b2:	4c 89 ef             	mov    %r13,%rdi
  4027b5:	e8 e6 e8 ff ff       	call   4010a0 <strlen@plt>
  4027ba:	48 89 c2             	mov    %rax,%rdx
  4027bd:	4c 89 ee             	mov    %r13,%rsi
  4027c0:	89 df                	mov    %ebx,%edi
  4027c2:	e8 0a fd ff ff       	call   4024d1 <rio_writen>
  4027c7:	48 85 c0             	test   %rax,%rax
  4027ca:	0f 88 33 03 00 00    	js     402b03 <submitr+0x4cf>
  4027d0:	4c 8d a4 24 30 80 00 	lea    0x8030(%rsp),%r12
  4027d7:	00 
  4027d8:	89 de                	mov    %ebx,%esi
  4027da:	4c 89 e7             	mov    %r12,%rdi
  4027dd:	e8 e5 fb ff ff       	call   4023c7 <rio_readinitb>
  4027e2:	48 8d b4 24 30 60 00 	lea    0x6030(%rsp),%rsi
  4027e9:	00 
  4027ea:	ba 00 20 00 00       	mov    $0x2000,%edx
  4027ef:	4c 89 e7             	mov    %r12,%rdi
  4027f2:	e8 c1 fd ff ff       	call   4025b8 <rio_readlineb>
  4027f7:	48 85 c0             	test   %rax,%rax
  4027fa:	0f 8e 72 03 00 00    	jle    402b72 <submitr+0x53e>
  402800:	48 8d 8c 24 2c 20 00 	lea    0x202c(%rsp),%rcx
  402807:	00 
  402808:	48 8d 94 24 30 20 00 	lea    0x2030(%rsp),%rdx
  40280f:	00 
  402810:	48 8d bc 24 30 60 00 	lea    0x6030(%rsp),%rdi
  402817:	00 
  402818:	4c 8d 44 24 20       	lea    0x20(%rsp),%r8
  40281d:	48 8d 35 38 1f 00 00 	lea    0x1f38(%rip),%rsi        # 40475c <trans_char+0xac>
  402824:	b8 00 00 00 00       	mov    $0x0,%eax
  402829:	e8 52 e9 ff ff       	call   401180 <__isoc99_sscanf@plt>
  40282e:	48 8d b4 24 30 60 00 	lea    0x6030(%rsp),%rsi
  402835:	00 
  402836:	b9 03 00 00 00       	mov    $0x3,%ecx
  40283b:	48 8d 3d 31 1f 00 00 	lea    0x1f31(%rip),%rdi        # 404773 <trans_char+0xc3>
  402842:	f3 a6                	repz cmpsb %es:(%rdi),%ds:(%rsi)
  402844:	0f 97 c0             	seta   %al
  402847:	1c 00                	sbb    $0x0,%al
  402849:	84 c0                	test   %al,%al
  40284b:	0f 84 9f 03 00 00    	je     402bf0 <submitr+0x5bc>
  402851:	48 8d b4 24 30 60 00 	lea    0x6030(%rsp),%rsi
  402858:	00 
  402859:	48 8d bc 24 30 80 00 	lea    0x8030(%rsp),%rdi
  402860:	00 
  402861:	ba 00 20 00 00       	mov    $0x2000,%edx
  402866:	e8 4d fd ff ff       	call   4025b8 <rio_readlineb>
  40286b:	48 85 c0             	test   %rax,%rax
  40286e:	7f be                	jg     40282e <submitr+0x1fa>
  402870:	48 b8 45 72 72 6f 72 	movabs $0x43203a726f727245,%rax
  402877:	3a 20 43 
  40287a:	48 ba 6c 69 65 6e 74 	movabs $0x6e7520746e65696c,%rdx
  402881:	20 75 6e 
  402884:	48 89 45 00          	mov    %rax,0x0(%rbp)
  402888:	48 89 55 08          	mov    %rdx,0x8(%rbp)
  40288c:	48 b8 61 62 6c 65 20 	movabs $0x206f7420656c6261,%rax
  402893:	74 6f 20 
  402896:	48 ba 72 65 61 64 20 	movabs $0x6165682064616572,%rdx
  40289d:	68 65 61 
  4028a0:	48 89 45 10          	mov    %rax,0x10(%rbp)
  4028a4:	48 89 55 18          	mov    %rdx,0x18(%rbp)
  4028a8:	48 b8 64 65 72 73 20 	movabs $0x6f72662073726564,%rax
  4028af:	66 72 6f 
  4028b2:	48 ba 6d 20 74 68 65 	movabs $0x657220656874206d,%rdx
  4028b9:	20 72 65 
  4028bc:	48 89 45 20          	mov    %rax,0x20(%rbp)
  4028c0:	48 89 55 28          	mov    %rdx,0x28(%rbp)
  4028c4:	48 b8 73 75 6c 74 20 	movabs $0x72657320746c7573,%rax
  4028cb:	73 65 72 
  4028ce:	48 89 45 30          	mov    %rax,0x30(%rbp)
  4028d2:	c7 45 38 76 65 72 00 	movl   $0x726576,0x38(%rbp)
  4028d9:	89 df                	mov    %ebx,%edi
  4028db:	e8 10 e8 ff ff       	call   4010f0 <close@plt>
  4028e0:	b8 ff ff ff ff       	mov    $0xffffffff,%eax
  4028e5:	48 81 c4 58 a0 00 00 	add    $0xa058,%rsp
  4028ec:	5b                   	pop    %rbx
  4028ed:	5d                   	pop    %rbp
  4028ee:	41 5c                	pop    %r12
  4028f0:	41 5d                	pop    %r13
  4028f2:	41 5e                	pop    %r14
  4028f4:	41 5f                	pop    %r15
  4028f6:	c3                   	ret    
  4028f7:	48 b8 45 72 72 6f 72 	movabs $0x43203a726f727245,%rax
  4028fe:	3a 20 43 
  402901:	48 ba 6c 69 65 6e 74 	movabs $0x6e7520746e65696c,%rdx
  402908:	20 75 6e 
  40290b:	48 89 45 00          	mov    %rax,0x0(%rbp)
  40290f:	48 89 55 08          	mov    %rdx,0x8(%rbp)
  402913:	48 b8 61 62 6c 65 20 	movabs $0x206f7420656c6261,%rax
  40291a:	74 6f 20 
  40291d:	48 ba 63 72 65 61 74 	movabs $0x7320657461657263,%rdx
  402924:	65 20 73 
  402927:	48 89 45 10          	mov    %rax,0x10(%rbp)
  40292b:	48 89 55 18          	mov    %rdx,0x18(%rbp)
  40292f:	c7 45 20 6f 63 6b 65 	movl   $0x656b636f,0x20(%rbp)
  402936:	66 c7 45 24 74 00    	movw   $0x74,0x24(%rbp)
  40293c:	b8 ff ff ff ff       	mov    $0xffffffff,%eax
  402941:	eb a2                	jmp    4028e5 <submitr+0x2b1>
  402943:	48 b8 45 72 72 6f 72 	movabs $0x44203a726f727245,%rax
  40294a:	3a 20 44 
  40294d:	48 ba 4e 53 20 69 73 	movabs $0x6e7520736920534e,%rdx
  402954:	20 75 6e 
  402957:	48 89 45 00          	mov    %rax,0x0(%rbp)
  40295b:	48 89 55 08          	mov    %rdx,0x8(%rbp)
  40295f:	48 b8 61 62 6c 65 20 	movabs $0x206f7420656c6261,%rax
  402966:	74 6f 20 
  402969:	48 ba 72 65 73 6f 6c 	movabs $0x2065766c6f736572,%rdx
  402970:	76 65 20 
  402973:	48 89 45 10          	mov    %rax,0x10(%rbp)
  402977:	48 89 55 18          	mov    %rdx,0x18(%rbp)
  40297b:	48 b8 73 65 72 76 65 	movabs $0x6120726576726573,%rax
  402982:	72 20 61 
  402985:	48 89 45 20          	mov    %rax,0x20(%rbp)
  402989:	c7 45 28 64 64 72 65 	movl   $0x65726464,0x28(%rbp)
  402990:	66 c7 45 2c 73 73    	movw   $0x7373,0x2c(%rbp)
  402996:	c6 45 2e 00          	movb   $0x0,0x2e(%rbp)
  40299a:	89 df                	mov    %ebx,%edi
  40299c:	e8 4f e7 ff ff       	call   4010f0 <close@plt>
  4029a1:	b8 ff ff ff ff       	mov    $0xffffffff,%eax
  4029a6:	e9 3a ff ff ff       	jmp    4028e5 <submitr+0x2b1>
  4029ab:	48 b8 45 72 72 6f 72 	movabs $0x55203a726f727245,%rax
  4029b2:	3a 20 55 
  4029b5:	48 ba 6e 61 62 6c 65 	movabs $0x6f7420656c62616e,%rdx
  4029bc:	20 74 6f 
  4029bf:	48 89 45 00          	mov    %rax,0x0(%rbp)
  4029c3:	48 89 55 08          	mov    %rdx,0x8(%rbp)
  4029c7:	48 b8 20 63 6f 6e 6e 	movabs $0x7463656e6e6f6320,%rax
  4029ce:	65 63 74 
  4029d1:	48 ba 20 74 6f 20 74 	movabs $0x20656874206f7420,%rdx
  4029d8:	68 65 20 
  4029db:	48 89 45 10          	mov    %rax,0x10(%rbp)
  4029df:	48 89 55 18          	mov    %rdx,0x18(%rbp)
  4029e3:	c7 45 20 73 65 72 76 	movl   $0x76726573,0x20(%rbp)
  4029ea:	66 c7 45 24 65 72    	movw   $0x7265,0x24(%rbp)
  4029f0:	c6 45 26 00          	movb   $0x0,0x26(%rbp)
  4029f4:	89 df                	mov    %ebx,%edi
  4029f6:	e8 f5 e6 ff ff       	call   4010f0 <close@plt>
  4029fb:	b8 ff ff ff ff       	mov    $0xffffffff,%eax
  402a00:	e9 e0 fe ff ff       	jmp    4028e5 <submitr+0x2b1>
  402a05:	48 b8 45 72 72 6f 72 	movabs $0x52203a726f727245,%rax
  402a0c:	3a 20 52 
  402a0f:	48 ba 65 73 75 6c 74 	movabs $0x747320746c757365,%rdx
  402a16:	20 73 74 
  402a19:	48 89 45 00          	mov    %rax,0x0(%rbp)
  402a1d:	48 89 55 08          	mov    %rdx,0x8(%rbp)
  402a21:	48 b8 72 69 6e 67 20 	movabs $0x6f6f7420676e6972,%rax
  402a28:	74 6f 6f 
  402a2b:	48 ba 20 6c 61 72 67 	movabs $0x202e656772616c20,%rdx
  402a32:	65 2e 20 
  402a35:	48 89 45 10          	mov    %rax,0x10(%rbp)
  402a39:	48 89 55 18          	mov    %rdx,0x18(%rbp)
  402a3d:	48 b8 49 6e 63 72 65 	movabs $0x6573616572636e49,%rax
  402a44:	61 73 65 
  402a47:	48 ba 20 53 55 42 4d 	movabs $0x5254494d42555320,%rdx
  402a4e:	49 54 52 
  402a51:	48 89 45 20          	mov    %rax,0x20(%rbp)
  402a55:	48 89 55 28          	mov    %rdx,0x28(%rbp)
  402a59:	48 b8 5f 4d 41 58 42 	movabs $0x46554258414d5f,%rax
  402a60:	55 46 00 
  402a63:	48 89 45 30          	mov    %rax,0x30(%rbp)
  402a67:	89 df                	mov    %ebx,%edi
  402a69:	e8 82 e6 ff ff       	call   4010f0 <close@plt>
  402a6e:	b8 ff ff ff ff       	mov    $0xffffffff,%eax
  402a73:	e9 6d fe ff ff       	jmp    4028e5 <submitr+0x2b1>
  402a78:	48 b8 45 72 72 6f 72 	movabs $0x52203a726f727245,%rax
  402a7f:	3a 20 52 
  402a82:	48 ba 65 73 75 6c 74 	movabs $0x747320746c757365,%rdx
  402a89:	20 73 74 
  402a8c:	48 89 45 00          	mov    %rax,0x0(%rbp)
  402a90:	48 89 55 08          	mov    %rdx,0x8(%rbp)
  402a94:	48 b8 72 69 6e 67 20 	movabs $0x6e6f6320676e6972,%rax
  402a9b:	63 6f 6e 
  402a9e:	48 ba 74 61 69 6e 73 	movabs $0x6e6120736e696174,%rdx
  402aa5:	20 61 6e 
  402aa8:	48 89 45 10          	mov    %rax,0x10(%rbp)
  402aac:	48 89 55 18          	mov    %rdx,0x18(%rbp)
  402ab0:	48 b8 20 69 6c 6c 65 	movabs $0x6c6167656c6c6920,%rax
  402ab7:	67 61 6c 
  402aba:	48 ba 20 6f 72 20 75 	movabs $0x72706e7520726f20,%rdx
  402ac1:	6e 70 72 
  402ac4:	48 89 45 20          	mov    %rax,0x20(%rbp)
  402ac8:	48 89 55 28          	mov    %rdx,0x28(%rbp)
  402acc:	48 b8 69 6e 74 61 62 	movabs $0x20656c6261746e69,%rax
  402ad3:	6c 65 20 
  402ad6:	48 ba 63 68 61 72 61 	movabs $0x6574636172616863,%rdx
  402add:	63 74 65 
  402ae0:	48 89 45 30          	mov    %rax,0x30(%rbp)
  402ae4:	48 89 55 38          	mov    %rdx,0x38(%rbp)
  402ae8:	66 c7 45 40 72 2e    	movw   $0x2e72,0x40(%rbp)
  402aee:	c6 45 42 00          	movb   $0x0,0x42(%rbp)
  402af2:	89 df                	mov    %ebx,%edi
  402af4:	e8 f7 e5 ff ff       	call   4010f0 <close@plt>
  402af9:	b8 ff ff ff ff       	mov    $0xffffffff,%eax
  402afe:	e9 e2 fd ff ff       	jmp    4028e5 <submitr+0x2b1>
  402b03:	48 b8 45 72 72 6f 72 	movabs $0x43203a726f727245,%rax
  402b0a:	3a 20 43 
  402b0d:	48 ba 6c 69 65 6e 74 	movabs $0x6e7520746e65696c,%rdx
  402b14:	20 75 6e 
  402b17:	48 89 45 00          	mov    %rax,0x0(%rbp)
  402b1b:	48 89 55 08          	mov    %rdx,0x8(%rbp)
  402b1f:	48 b8 61 62 6c 65 20 	movabs $0x206f7420656c6261,%rax
  402b26:	74 6f 20 
  402b29:	48 ba 77 72 69 74 65 	movabs $0x6f74206574697277,%rdx
  402b30:	20 74 6f 
  402b33:	48 89 45 10          	mov    %rax,0x10(%rbp)
  402b37:	48 89 55 18          	mov    %rdx,0x18(%rbp)
  402b3b:	48 b8 20 74 68 65 20 	movabs $0x7365722065687420,%rax
  402b42:	72 65 73 
  402b45:	48 ba 75 6c 74 20 73 	movabs $0x7672657320746c75,%rdx
  402b4c:	65 72 76 
  402b4f:	48 89 45 20          	mov    %rax,0x20(%rbp)
  402b53:	48 89 55 28          	mov    %rdx,0x28(%rbp)
  402b57:	66 c7 45 30 65 72    	movw   $0x7265,0x30(%rbp)
  402b5d:	c6 45 32 00          	movb   $0x0,0x32(%rbp)
  402b61:	89 df                	mov    %ebx,%edi
  402b63:	e8 88 e5 ff ff       	call   4010f0 <close@plt>
  402b68:	b8 ff ff ff ff       	mov    $0xffffffff,%eax
  402b6d:	e9 73 fd ff ff       	jmp    4028e5 <submitr+0x2b1>
  402b72:	48 b8 45 72 72 6f 72 	movabs $0x43203a726f727245,%rax
  402b79:	3a 20 43 
  402b7c:	48 ba 6c 69 65 6e 74 	movabs $0x6e7520746e65696c,%rdx
  402b83:	20 75 6e 
  402b86:	48 89 45 00          	mov    %rax,0x0(%rbp)
  402b8a:	48 89 55 08          	mov    %rdx,0x8(%rbp)
  402b8e:	48 b8 61 62 6c 65 20 	movabs $0x206f7420656c6261,%rax
  402b95:	74 6f 20 
  402b98:	48 ba 72 65 61 64 20 	movabs $0x7269662064616572,%rdx
  402b9f:	66 69 72 
  402ba2:	48 89 45 10          	mov    %rax,0x10(%rbp)
  402ba6:	48 89 55 18          	mov    %rdx,0x18(%rbp)
  402baa:	48 b8 73 74 20 68 65 	movabs $0x6564616568207473,%rax
  402bb1:	61 64 65 
  402bb4:	48 ba 72 20 66 72 6f 	movabs $0x72206d6f72662072,%rdx
  402bbb:	6d 20 72 
  402bbe:	48 89 45 20          	mov    %rax,0x20(%rbp)
  402bc2:	48 89 55 28          	mov    %rdx,0x28(%rbp)
  402bc6:	48 b8 65 73 75 6c 74 	movabs $0x657320746c757365,%rax
  402bcd:	20 73 65 
  402bd0:	48 89 45 30          	mov    %rax,0x30(%rbp)
  402bd4:	c7 45 38 72 76 65 72 	movl   $0x72657672,0x38(%rbp)
  402bdb:	c6 45 3c 00          	movb   $0x0,0x3c(%rbp)
  402bdf:	89 df                	mov    %ebx,%edi
  402be1:	e8 0a e5 ff ff       	call   4010f0 <close@plt>
  402be6:	b8 ff ff ff ff       	mov    $0xffffffff,%eax
  402beb:	e9 f5 fc ff ff       	jmp    4028e5 <submitr+0x2b1>
  402bf0:	48 8d b4 24 30 60 00 	lea    0x6030(%rsp),%rsi
  402bf7:	00 
  402bf8:	48 8d bc 24 30 80 00 	lea    0x8030(%rsp),%rdi
  402bff:	00 
  402c00:	ba 00 20 00 00       	mov    $0x2000,%edx
  402c05:	e8 ae f9 ff ff       	call   4025b8 <rio_readlineb>
  402c0a:	48 85 c0             	test   %rax,%rax
  402c0d:	0f 8e 97 00 00 00    	jle    402caa <submitr+0x676>
  402c13:	8b 94 24 2c 20 00 00 	mov    0x202c(%rsp),%edx
  402c1a:	81 fa c8 00 00 00    	cmp    $0xc8,%edx
  402c20:	0f 85 08 01 00 00    	jne    402d2e <submitr+0x6fa>
  402c26:	48 8d b4 24 30 60 00 	lea    0x6030(%rsp),%rsi
  402c2d:	00 
  402c2e:	48 89 ef             	mov    %rbp,%rdi
  402c31:	e8 3a e4 ff ff       	call   401070 <strcpy@plt>
  402c36:	89 df                	mov    %ebx,%edi
  402c38:	e8 b3 e4 ff ff       	call   4010f0 <close@plt>
  402c3d:	b9 04 00 00 00       	mov    $0x4,%ecx
  402c42:	48 8d 3d 24 1b 00 00 	lea    0x1b24(%rip),%rdi        # 40476d <trans_char+0xbd>
  402c49:	48 89 ee             	mov    %rbp,%rsi
  402c4c:	f3 a6                	repz cmpsb %es:(%rdi),%ds:(%rsi)
  402c4e:	0f 97 c0             	seta   %al
  402c51:	1c 00                	sbb    $0x0,%al
  402c53:	0f be c0             	movsbl %al,%eax
  402c56:	85 c0                	test   %eax,%eax
  402c58:	0f 84 87 fc ff ff    	je     4028e5 <submitr+0x2b1>
  402c5e:	b9 05 00 00 00       	mov    $0x5,%ecx
  402c63:	48 8d 3d 07 1b 00 00 	lea    0x1b07(%rip),%rdi        # 404771 <trans_char+0xc1>
  402c6a:	48 89 ee             	mov    %rbp,%rsi
  402c6d:	f3 a6                	repz cmpsb %es:(%rdi),%ds:(%rsi)
  402c6f:	0f 97 c0             	seta   %al
  402c72:	1c 00                	sbb    $0x0,%al
  402c74:	0f be c0             	movsbl %al,%eax
  402c77:	85 c0                	test   %eax,%eax
  402c79:	0f 84 66 fc ff ff    	je     4028e5 <submitr+0x2b1>
  402c7f:	b9 03 00 00 00       	mov    $0x3,%ecx
  402c84:	48 8d 3d eb 1a 00 00 	lea    0x1aeb(%rip),%rdi        # 404776 <trans_char+0xc6>
  402c8b:	48 89 ee             	mov    %rbp,%rsi
  402c8e:	f3 a6                	repz cmpsb %es:(%rdi),%ds:(%rsi)
  402c90:	0f 97 c0             	seta   %al
  402c93:	1c 00                	sbb    $0x0,%al
  402c95:	0f be c0             	movsbl %al,%eax
  402c98:	85 c0                	test   %eax,%eax
  402c9a:	0f 84 45 fc ff ff    	je     4028e5 <submitr+0x2b1>
  402ca0:	b8 ff ff ff ff       	mov    $0xffffffff,%eax
  402ca5:	e9 3b fc ff ff       	jmp    4028e5 <submitr+0x2b1>
  402caa:	48 b8 45 72 72 6f 72 	movabs $0x43203a726f727245,%rax
  402cb1:	3a 20 43 
  402cb4:	48 ba 6c 69 65 6e 74 	movabs $0x6e7520746e65696c,%rdx
  402cbb:	20 75 6e 
  402cbe:	48 89 45 00          	mov    %rax,0x0(%rbp)
  402cc2:	48 89 55 08          	mov    %rdx,0x8(%rbp)
  402cc6:	48 b8 61 62 6c 65 20 	movabs $0x206f7420656c6261,%rax
  402ccd:	74 6f 20 
  402cd0:	48 ba 72 65 61 64 20 	movabs $0x6174732064616572,%rdx
  402cd7:	73 74 61 
  402cda:	48 89 45 10          	mov    %rax,0x10(%rbp)
  402cde:	48 89 55 18          	mov    %rdx,0x18(%rbp)
  402ce2:	48 b8 74 75 73 20 6d 	movabs $0x7373656d20737574,%rax
  402ce9:	65 73 73 
  402cec:	48 ba 61 67 65 20 66 	movabs $0x6d6f726620656761,%rdx
  402cf3:	72 6f 6d 
  402cf6:	48 89 45 20          	mov    %rax,0x20(%rbp)
  402cfa:	48 89 55 28          	mov    %rdx,0x28(%rbp)
  402cfe:	48 b8 20 72 65 73 75 	movabs $0x20746c7573657220,%rax
  402d05:	6c 74 20 
  402d08:	48 89 45 30          	mov    %rax,0x30(%rbp)
  402d0c:	c7 45 38 73 65 72 76 	movl   $0x76726573,0x38(%rbp)
  402d13:	66 c7 45 3c 65 72    	movw   $0x7265,0x3c(%rbp)
  402d19:	c6 45 3e 00          	movb   $0x0,0x3e(%rbp)
  402d1d:	89 df                	mov    %ebx,%edi
  402d1f:	e8 cc e3 ff ff       	call   4010f0 <close@plt>
  402d24:	b8 ff ff ff ff       	mov    $0xffffffff,%eax
  402d29:	e9 b7 fb ff ff       	jmp    4028e5 <submitr+0x2b1>
  402d2e:	48 8d 4c 24 20       	lea    0x20(%rsp),%rcx
  402d33:	48 8d 35 ee 19 00 00 	lea    0x19ee(%rip),%rsi        # 404728 <trans_char+0x78>
  402d3a:	48 89 ef             	mov    %rbp,%rdi
  402d3d:	b8 00 00 00 00       	mov    $0x0,%eax
  402d42:	e8 a9 e4 ff ff       	call   4011f0 <sprintf@plt>
  402d47:	89 df                	mov    %ebx,%edi
  402d49:	e8 a2 e3 ff ff       	call   4010f0 <close@plt>
  402d4e:	b8 ff ff ff ff       	mov    $0xffffffff,%eax
  402d53:	e9 8d fb ff ff       	jmp    4028e5 <submitr+0x2b1>

0000000000402d58 <init_timeout>:
  402d58:	85 ff                	test   %edi,%edi
  402d5a:	74 26                	je     402d82 <init_timeout+0x2a>
  402d5c:	53                   	push   %rbx
  402d5d:	89 fb                	mov    %edi,%ebx
  402d5f:	78 1a                	js     402d7b <init_timeout+0x23>
  402d61:	48 8d 35 71 f6 ff ff 	lea    -0x98f(%rip),%rsi        # 4023d9 <sigalrm_handler>
  402d68:	bf 0e 00 00 00       	mov    $0xe,%edi
  402d6d:	e8 9e e3 ff ff       	call   401110 <signal@plt>
  402d72:	89 df                	mov    %ebx,%edi
  402d74:	e8 67 e3 ff ff       	call   4010e0 <alarm@plt>
  402d79:	5b                   	pop    %rbx
  402d7a:	c3                   	ret    
  402d7b:	bb 00 00 00 00       	mov    $0x0,%ebx
  402d80:	eb df                	jmp    402d61 <init_timeout+0x9>
  402d82:	c3                   	ret    

0000000000402d83 <init_driver>:
  402d83:	41 54                	push   %r12
  402d85:	55                   	push   %rbp
  402d86:	53                   	push   %rbx
  402d87:	48 83 ec 10          	sub    $0x10,%rsp
  402d8b:	48 89 fd             	mov    %rdi,%rbp
  402d8e:	be 01 00 00 00       	mov    $0x1,%esi
  402d93:	bf 0d 00 00 00       	mov    $0xd,%edi
  402d98:	e8 73 e3 ff ff       	call   401110 <signal@plt>
  402d9d:	be 01 00 00 00       	mov    $0x1,%esi
  402da2:	bf 1d 00 00 00       	mov    $0x1d,%edi
  402da7:	e8 64 e3 ff ff       	call   401110 <signal@plt>
  402dac:	be 01 00 00 00       	mov    $0x1,%esi
  402db1:	bf 1d 00 00 00       	mov    $0x1d,%edi
  402db6:	e8 55 e3 ff ff       	call   401110 <signal@plt>
  402dbb:	ba 00 00 00 00       	mov    $0x0,%edx
  402dc0:	be 01 00 00 00       	mov    $0x1,%esi
  402dc5:	bf 02 00 00 00       	mov    $0x2,%edi
  402dca:	e8 61 e4 ff ff       	call   401230 <socket@plt>
  402dcf:	85 c0                	test   %eax,%eax
  402dd1:	0f 88 83 00 00 00    	js     402e5a <init_driver+0xd7>
  402dd7:	89 c3                	mov    %eax,%ebx
  402dd9:	48 8d 3d 99 19 00 00 	lea    0x1999(%rip),%rdi        # 404779 <trans_char+0xc9>
  402de0:	e8 3b e3 ff ff       	call   401120 <gethostbyname@plt>
  402de5:	48 85 c0             	test   %rax,%rax
  402de8:	0f 84 b8 00 00 00    	je     402ea6 <init_driver+0x123>
  402dee:	49 89 e4             	mov    %rsp,%r12
  402df1:	48 c7 04 24 00 00 00 	movq   $0x0,(%rsp)
  402df8:	00 
  402df9:	48 c7 44 24 08 00 00 	movq   $0x0,0x8(%rsp)
  402e00:	00 00 
  402e02:	66 c7 04 24 02 00    	movw   $0x2,(%rsp)
  402e08:	48 8b 48 18          	mov    0x18(%rax),%rcx
  402e0c:	48 63 50 14          	movslq 0x14(%rax),%rdx
  402e10:	48 8d 7c 24 04       	lea    0x4(%rsp),%rdi
  402e15:	48 8b 31             	mov    (%rcx),%rsi
  402e18:	e8 83 e3 ff ff       	call   4011a0 <memmove@plt>
  402e1d:	66 c7 44 24 02 3c a4 	movw   $0xa43c,0x2(%rsp)
  402e24:	ba 10 00 00 00       	mov    $0x10,%edx
  402e29:	4c 89 e6             	mov    %r12,%rsi
  402e2c:	89 df                	mov    %ebx,%edi
  402e2e:	e8 dd e3 ff ff       	call   401210 <connect@plt>
  402e33:	85 c0                	test   %eax,%eax
  402e35:	0f 88 d3 00 00 00    	js     402f0e <init_driver+0x18b>
  402e3b:	89 df                	mov    %ebx,%edi
  402e3d:	e8 ae e2 ff ff       	call   4010f0 <close@plt>
  402e42:	66 c7 45 00 4f 4b    	movw   $0x4b4f,0x0(%rbp)
  402e48:	c6 45 02 00          	movb   $0x0,0x2(%rbp)
  402e4c:	b8 00 00 00 00       	mov    $0x0,%eax
  402e51:	48 83 c4 10          	add    $0x10,%rsp
  402e55:	5b                   	pop    %rbx
  402e56:	5d                   	pop    %rbp
  402e57:	41 5c                	pop    %r12
  402e59:	c3                   	ret    
  402e5a:	48 b8 45 72 72 6f 72 	movabs $0x43203a726f727245,%rax
  402e61:	3a 20 43 
  402e64:	48 ba 6c 69 65 6e 74 	movabs $0x6e7520746e65696c,%rdx
  402e6b:	20 75 6e 
  402e6e:	48 89 45 00          	mov    %rax,0x0(%rbp)
  402e72:	48 89 55 08          	mov    %rdx,0x8(%rbp)
  402e76:	48 b8 61 62 6c 65 20 	movabs $0x206f7420656c6261,%rax
  402e7d:	74 6f 20 
  402e80:	48 ba 63 72 65 61 74 	movabs $0x7320657461657263,%rdx
  402e87:	65 20 73 
  402e8a:	48 89 45 10          	mov    %rax,0x10(%rbp)
  402e8e:	48 89 55 18          	mov    %rdx,0x18(%rbp)
  402e92:	c7 45 20 6f 63 6b 65 	movl   $0x656b636f,0x20(%rbp)
  402e99:	66 c7 45 24 74 00    	movw   $0x74,0x24(%rbp)
  402e9f:	b8 ff ff ff ff       	mov    $0xffffffff,%eax
  402ea4:	eb ab                	jmp    402e51 <init_driver+0xce>
  402ea6:	48 b8 45 72 72 6f 72 	movabs $0x44203a726f727245,%rax
  402ead:	3a 20 44 
  402eb0:	48 ba 4e 53 20 69 73 	movabs $0x6e7520736920534e,%rdx
  402eb7:	20 75 6e 
  402eba:	48 89 45 00          	mov    %rax,0x0(%rbp)
  402ebe:	48 89 55 08          	mov    %rdx,0x8(%rbp)
  402ec2:	48 b8 61 62 6c 65 20 	movabs $0x206f7420656c6261,%rax
  402ec9:	74 6f 20 
  402ecc:	48 ba 72 65 73 6f 6c 	movabs $0x2065766c6f736572,%rdx
  402ed3:	76 65 20 
  402ed6:	48 89 45 10          	mov    %rax,0x10(%rbp)
  402eda:	48 89 55 18          	mov    %rdx,0x18(%rbp)
  402ede:	48 b8 73 65 72 76 65 	movabs $0x6120726576726573,%rax
  402ee5:	72 20 61 
  402ee8:	48 89 45 20          	mov    %rax,0x20(%rbp)
  402eec:	c7 45 28 64 64 72 65 	movl   $0x65726464,0x28(%rbp)
  402ef3:	66 c7 45 2c 73 73    	movw   $0x7373,0x2c(%rbp)
  402ef9:	c6 45 2e 00          	movb   $0x0,0x2e(%rbp)
  402efd:	89 df                	mov    %ebx,%edi
  402eff:	e8 ec e1 ff ff       	call   4010f0 <close@plt>
  402f04:	b8 ff ff ff ff       	mov    $0xffffffff,%eax
  402f09:	e9 43 ff ff ff       	jmp    402e51 <init_driver+0xce>
  402f0e:	48 b8 32 30 32 2e 31 	movabs $0x2e3032312e323032,%rax
  402f15:	32 30 2e 
  402f18:	48 89 45 00          	mov    %rax,0x0(%rbp)
  402f1c:	c7 45 08 34 30 2e 38 	movl   $0x382e3034,0x8(%rbp)
  402f23:	66 c7 45 0c 35 00    	movw   $0x35,0xc(%rbp)
  402f29:	48 b8 45 72 72 6f 72 	movabs $0x55203a726f727245,%rax
  402f30:	3a 20 55 
  402f33:	48 ba 6e 61 62 6c 65 	movabs $0x6f7420656c62616e,%rdx
  402f3a:	20 74 6f 
  402f3d:	48 89 45 00          	mov    %rax,0x0(%rbp)
  402f41:	48 89 55 08          	mov    %rdx,0x8(%rbp)
  402f45:	48 b8 20 63 6f 6e 6e 	movabs $0x7463656e6e6f6320,%rax
  402f4c:	65 63 74 
  402f4f:	48 ba 20 74 6f 20 73 	movabs $0x76726573206f7420,%rdx
  402f56:	65 72 76 
  402f59:	48 89 45 10          	mov    %rax,0x10(%rbp)
  402f5d:	48 89 55 18          	mov    %rdx,0x18(%rbp)
  402f61:	66 c7 45 20 65 72    	movw   $0x7265,0x20(%rbp)
  402f67:	c6 45 22 00          	movb   $0x0,0x22(%rbp)
  402f6b:	89 df                	mov    %ebx,%edi
  402f6d:	e8 7e e1 ff ff       	call   4010f0 <close@plt>
  402f72:	b8 ff ff ff ff       	mov    $0xffffffff,%eax
  402f77:	e9 d5 fe ff ff       	jmp    402e51 <init_driver+0xce>

0000000000402f7c <driver_post>:
  402f7c:	53                   	push   %rbx
  402f7d:	4c 89 cb             	mov    %r9,%rbx
  402f80:	45 85 c0             	test   %r8d,%r8d
  402f83:	75 18                	jne    402f9d <driver_post+0x21>
  402f85:	48 85 ff             	test   %rdi,%rdi
  402f88:	74 05                	je     402f8f <driver_post+0x13>
  402f8a:	80 3f 00             	cmpb   $0x0,(%rdi)
  402f8d:	75 32                	jne    402fc1 <driver_post+0x45>
  402f8f:	66 c7 03 4f 4b       	movw   $0x4b4f,(%rbx)
  402f94:	c6 43 02 00          	movb   $0x0,0x2(%rbx)
  402f98:	44 89 c0             	mov    %r8d,%eax
  402f9b:	5b                   	pop    %rbx
  402f9c:	c3                   	ret    
  402f9d:	48 89 ce             	mov    %rcx,%rsi
  402fa0:	48 8d 3d e0 17 00 00 	lea    0x17e0(%rip),%rdi        # 404787 <trans_char+0xd7>
  402fa7:	b8 00 00 00 00       	mov    $0x0,%eax
  402fac:	e8 0f e1 ff ff       	call   4010c0 <printf@plt>
  402fb1:	66 c7 03 4f 4b       	movw   $0x4b4f,(%rbx)
  402fb6:	c6 43 02 00          	movb   $0x0,0x2(%rbx)
  402fba:	b8 00 00 00 00       	mov    $0x0,%eax
  402fbf:	eb da                	jmp    402f9b <driver_post+0x1f>
  402fc1:	48 83 ec 08          	sub    $0x8,%rsp
  402fc5:	41 51                	push   %r9
  402fc7:	49 89 c9             	mov    %rcx,%r9
  402fca:	49 89 d0             	mov    %rdx,%r8
  402fcd:	48 89 f9             	mov    %rdi,%rcx
  402fd0:	48 89 f2             	mov    %rsi,%rdx
  402fd3:	be a4 3c 00 00       	mov    $0x3ca4,%esi
  402fd8:	48 8d 3d 9a 17 00 00 	lea    0x179a(%rip),%rdi        # 404779 <trans_char+0xc9>
  402fdf:	e8 50 f6 ff ff       	call   402634 <submitr>
  402fe4:	48 83 c4 10          	add    $0x10,%rsp
  402fe8:	eb b1                	jmp    402f9b <driver_post+0x1f>

0000000000402fea <check>:
  402fea:	89 f8                	mov    %edi,%eax
  402fec:	c1 e8 1c             	shr    $0x1c,%eax
  402fef:	74 1d                	je     40300e <check+0x24>
  402ff1:	b9 00 00 00 00       	mov    $0x0,%ecx
  402ff6:	83 f9 1f             	cmp    $0x1f,%ecx
  402ff9:	7f 0d                	jg     403008 <check+0x1e>
  402ffb:	89 f8                	mov    %edi,%eax
  402ffd:	d3 e8                	shr    %cl,%eax
  402fff:	3c 0a                	cmp    $0xa,%al
  403001:	74 11                	je     403014 <check+0x2a>
  403003:	83 c1 08             	add    $0x8,%ecx
  403006:	eb ee                	jmp    402ff6 <check+0xc>
  403008:	b8 01 00 00 00       	mov    $0x1,%eax
  40300d:	c3                   	ret    
  40300e:	b8 00 00 00 00       	mov    $0x0,%eax
  403013:	c3                   	ret    
  403014:	b8 00 00 00 00       	mov    $0x0,%eax
  403019:	c3                   	ret    

000000000040301a <gencookie>:
  40301a:	53                   	push   %rbx
  40301b:	83 c7 01             	add    $0x1,%edi
  40301e:	e8 2d e0 ff ff       	call   401050 <srandom@plt>
  403023:	e8 48 e1 ff ff       	call   401170 <random@plt>
  403028:	48 89 c7             	mov    %rax,%rdi
  40302b:	89 c3                	mov    %eax,%ebx
  40302d:	e8 b8 ff ff ff       	call   402fea <check>
  403032:	85 c0                	test   %eax,%eax
  403034:	74 ed                	je     403023 <gencookie+0x9>
  403036:	89 d8                	mov    %ebx,%eax
  403038:	5b                   	pop    %rbx
  403039:	c3                   	ret    

Disassembly of section .fini:

000000000040303c <_fini>:
  40303c:	48 83 ec 08          	sub    $0x8,%rsp
  403040:	48 83 c4 08          	add    $0x8,%rsp
  403044:	c3                   	ret    
